
/home/crystc/ysyx-workbench/am-kernels/tests/cpu-tests/build/div-riscv32e-npc.elf:     file format elf32-littleriscv


Disassembly of section .text:

80000000 <_start>:
80000000:	00000413          	li	s0,0
80000004:	00009117          	auipc	sp,0x9
80000008:	ffc10113          	addi	sp,sp,-4 # 80009000 <_end>
8000000c:	12c000ef          	jal	ra,80000138 <_trm_init>

80000010 <check>:
80000010:	00050463          	beqz	a0,80000018 <check+0x8>
80000014:	00008067          	ret
80000018:	ff410113          	addi	sp,sp,-12
8000001c:	00100513          	li	a0,1
80000020:	00112423          	sw	ra,8(sp)
80000024:	110000ef          	jal	ra,80000134 <halt>

80000028 <main>:
80000028:	fec10113          	addi	sp,sp,-20
8000002c:	00000797          	auipc	a5,0x0
80000030:	23c78793          	addi	a5,a5,572 # 80000268 <a>
80000034:	00f12223          	sw	a5,4(sp)
80000038:	00078713          	mv	a4,a5
8000003c:	00112823          	sw	ra,16(sp)
80000040:	00812623          	sw	s0,12(sp)
80000044:	00912423          	sw	s1,8(sp)
80000048:	00000793          	li	a5,0
8000004c:	00a00693          	li	a3,10
80000050:	00f72023          	sw	a5,0(a4)
80000054:	00178793          	addi	a5,a5,1
80000058:	00470713          	addi	a4,a4,4
8000005c:	fed79ae3          	bne	a5,a3,80000050 <main+0x28>
80000060:	00000797          	auipc	a5,0x0
80000064:	20878793          	addi	a5,a5,520 # 80000268 <a>
80000068:	00f12023          	sw	a5,0(sp)
8000006c:	00b00413          	li	s0,11
80000070:	00012783          	lw	a5,0(sp)
80000074:	00100493          	li	s1,1
80000078:	0007a503          	lw	a0,0(a5)
8000007c:	00048593          	mv	a1,s1
80000080:	00148493          	addi	s1,s1,1
80000084:	180000ef          	jal	ra,80000204 <__mulsi3>
80000088:	fe849ae3          	bne	s1,s0,8000007c <main+0x54>
8000008c:	00012783          	lw	a5,0(sp)
80000090:	00000717          	auipc	a4,0x0
80000094:	20070713          	addi	a4,a4,512 # 80000290 <a+0x28>
80000098:	00a7a023          	sw	a0,0(a5)
8000009c:	00478793          	addi	a5,a5,4
800000a0:	00f12023          	sw	a5,0(sp)
800000a4:	fce796e3          	bne	a5,a4,80000070 <main+0x48>
800000a8:	00000797          	auipc	a5,0x0
800000ac:	1c078793          	addi	a5,a5,448 # 80000268 <a>
800000b0:	00f12023          	sw	a5,0(sp)
800000b4:	00b00413          	li	s0,11
800000b8:	00012783          	lw	a5,0(sp)
800000bc:	00100493          	li	s1,1
800000c0:	0007a503          	lw	a0,0(a5)
800000c4:	00048593          	mv	a1,s1
800000c8:	00148493          	addi	s1,s1,1
800000cc:	084000ef          	jal	ra,80000150 <__divsi3>
800000d0:	fe849ae3          	bne	s1,s0,800000c4 <main+0x9c>
800000d4:	00012783          	lw	a5,0(sp)
800000d8:	00000717          	auipc	a4,0x0
800000dc:	1b870713          	addi	a4,a4,440 # 80000290 <a+0x28>
800000e0:	00a7a023          	sw	a0,0(a5)
800000e4:	00478793          	addi	a5,a5,4
800000e8:	00f12023          	sw	a5,0(sp)
800000ec:	fce796e3          	bne	a5,a4,800000b8 <main+0x90>
800000f0:	00000493          	li	s1,0
800000f4:	00a00413          	li	s0,10
800000f8:	00412783          	lw	a5,4(sp)
800000fc:	0007a503          	lw	a0,0(a5)
80000100:	00478793          	addi	a5,a5,4
80000104:	00f12223          	sw	a5,4(sp)
80000108:	40950533          	sub	a0,a0,s1
8000010c:	00153513          	seqz	a0,a0
80000110:	00148493          	addi	s1,s1,1
80000114:	efdff0ef          	jal	ra,80000010 <check>
80000118:	fe8490e3          	bne	s1,s0,800000f8 <main+0xd0>
8000011c:	01012083          	lw	ra,16(sp)
80000120:	00c12403          	lw	s0,12(sp)
80000124:	00812483          	lw	s1,8(sp)
80000128:	00000513          	li	a0,0
8000012c:	01410113          	addi	sp,sp,20
80000130:	00008067          	ret

80000134 <halt>:
80000134:	0000006f          	j	80000134 <halt>

80000138 <_trm_init>:
80000138:	ff410113          	addi	sp,sp,-12
8000013c:	00000517          	auipc	a0,0x0
80000140:	0ec50513          	addi	a0,a0,236 # 80000228 <_etext>
80000144:	00112423          	sw	ra,8(sp)
80000148:	ee1ff0ef          	jal	ra,80000028 <main>
8000014c:	0000006f          	j	8000014c <_trm_init+0x14>

80000150 <__divsi3>:
80000150:	06054063          	bltz	a0,800001b0 <__umodsi3+0x10>
80000154:	0605c663          	bltz	a1,800001c0 <__umodsi3+0x20>

80000158 <__hidden___udivsi3>:
80000158:	00058613          	mv	a2,a1
8000015c:	00050593          	mv	a1,a0
80000160:	fff00513          	li	a0,-1
80000164:	02060c63          	beqz	a2,8000019c <__hidden___udivsi3+0x44>
80000168:	00100693          	li	a3,1
8000016c:	00b67a63          	bgeu	a2,a1,80000180 <__hidden___udivsi3+0x28>
80000170:	00c05863          	blez	a2,80000180 <__hidden___udivsi3+0x28>
80000174:	00161613          	slli	a2,a2,0x1
80000178:	00169693          	slli	a3,a3,0x1
8000017c:	feb66ae3          	bltu	a2,a1,80000170 <__hidden___udivsi3+0x18>
80000180:	00000513          	li	a0,0
80000184:	00c5e663          	bltu	a1,a2,80000190 <__hidden___udivsi3+0x38>
80000188:	40c585b3          	sub	a1,a1,a2
8000018c:	00d56533          	or	a0,a0,a3
80000190:	0016d693          	srli	a3,a3,0x1
80000194:	00165613          	srli	a2,a2,0x1
80000198:	fe0696e3          	bnez	a3,80000184 <__hidden___udivsi3+0x2c>
8000019c:	00008067          	ret

800001a0 <__umodsi3>:
800001a0:	00008293          	mv	t0,ra
800001a4:	fb5ff0ef          	jal	ra,80000158 <__hidden___udivsi3>
800001a8:	00058513          	mv	a0,a1
800001ac:	00028067          	jr	t0
800001b0:	40a00533          	neg	a0,a0
800001b4:	00b04863          	bgtz	a1,800001c4 <__umodsi3+0x24>
800001b8:	40b005b3          	neg	a1,a1
800001bc:	f9dff06f          	j	80000158 <__hidden___udivsi3>
800001c0:	40b005b3          	neg	a1,a1
800001c4:	00008293          	mv	t0,ra
800001c8:	f91ff0ef          	jal	ra,80000158 <__hidden___udivsi3>
800001cc:	40a00533          	neg	a0,a0
800001d0:	00028067          	jr	t0

800001d4 <__modsi3>:
800001d4:	00008293          	mv	t0,ra
800001d8:	0005ca63          	bltz	a1,800001ec <__modsi3+0x18>
800001dc:	00054c63          	bltz	a0,800001f4 <__modsi3+0x20>
800001e0:	f79ff0ef          	jal	ra,80000158 <__hidden___udivsi3>
800001e4:	00058513          	mv	a0,a1
800001e8:	00028067          	jr	t0
800001ec:	40b005b3          	neg	a1,a1
800001f0:	fe0558e3          	bgez	a0,800001e0 <__modsi3+0xc>
800001f4:	40a00533          	neg	a0,a0
800001f8:	f61ff0ef          	jal	ra,80000158 <__hidden___udivsi3>
800001fc:	40b00533          	neg	a0,a1
80000200:	00028067          	jr	t0

80000204 <__mulsi3>:
80000204:	00050613          	mv	a2,a0
80000208:	00000513          	li	a0,0
8000020c:	0015f693          	andi	a3,a1,1
80000210:	00068463          	beqz	a3,80000218 <__mulsi3+0x14>
80000214:	00c50533          	add	a0,a0,a2
80000218:	0015d593          	srli	a1,a1,0x1
8000021c:	00161613          	slli	a2,a2,0x1
80000220:	fe0596e3          	bnez	a1,8000020c <__mulsi3+0x8>
80000224:	00008067          	ret
