
/home/azureuser/RV32-CPU/tests/build/hello-str-riscv32e-npc.elf:     file format elf32-littleriscv


Disassembly of section .text:

80000000 <_start>:
80000000:	00000413          	li	s0,0
80000004:	0000a117          	auipc	sp,0xa
80000008:	ffc10113          	addi	sp,sp,-4 # 8000a000 <_end>
8000000c:	0e8000ef          	jal	ra,800000f4 <_trm_init>

80000010 <check>:
80000010:	00050463          	beqz	a0,80000018 <check+0x8>
80000014:	00008067          	ret
80000018:	ff410113          	addi	sp,sp,-12
8000001c:	00100513          	li	a0,1
80000020:	00112423          	sw	ra,8(sp)
80000024:	0c4000ef          	jal	ra,800000e8 <halt>

80000028 <main>:
80000028:	ff410113          	addi	sp,sp,-12
8000002c:	00812223          	sw	s0,4(sp)
80000030:	00001417          	auipc	s0,0x1
80000034:	2d840413          	addi	s0,s0,728 # 80001308 <buf>
80000038:	00001617          	auipc	a2,0x1
8000003c:	1dc60613          	addi	a2,a2,476 # 80001214 <_etext>
80000040:	00001597          	auipc	a1,0x1
80000044:	1e458593          	addi	a1,a1,484 # 80001224 <_etext+0x10>
80000048:	00040513          	mv	a0,s0
8000004c:	00112423          	sw	ra,8(sp)
80000050:	319000ef          	jal	ra,80000b68 <sprintf>
80000054:	00001597          	auipc	a1,0x1
80000058:	1c058593          	addi	a1,a1,448 # 80001214 <_etext>
8000005c:	00040513          	mv	a0,s0
80000060:	349000ef          	jal	ra,80000ba8 <strcmp>
80000064:	00153513          	seqz	a0,a0
80000068:	fa9ff0ef          	jal	ra,80000010 <check>
8000006c:	00200713          	li	a4,2
80000070:	00100693          	li	a3,1
80000074:	00100613          	li	a2,1
80000078:	00001597          	auipc	a1,0x1
8000007c:	1b058593          	addi	a1,a1,432 # 80001228 <_etext+0x14>
80000080:	00040513          	mv	a0,s0
80000084:	2e5000ef          	jal	ra,80000b68 <sprintf>
80000088:	00001597          	auipc	a1,0x1
8000008c:	1b058593          	addi	a1,a1,432 # 80001238 <_etext+0x24>
80000090:	00040513          	mv	a0,s0
80000094:	315000ef          	jal	ra,80000ba8 <strcmp>
80000098:	00153513          	seqz	a0,a0
8000009c:	f75ff0ef          	jal	ra,80000010 <check>
800000a0:	00c00713          	li	a4,12
800000a4:	00a00693          	li	a3,10
800000a8:	00200613          	li	a2,2
800000ac:	00001597          	auipc	a1,0x1
800000b0:	17c58593          	addi	a1,a1,380 # 80001228 <_etext+0x14>
800000b4:	00040513          	mv	a0,s0
800000b8:	2b1000ef          	jal	ra,80000b68 <sprintf>
800000bc:	00001597          	auipc	a1,0x1
800000c0:	18858593          	addi	a1,a1,392 # 80001244 <_etext+0x30>
800000c4:	00040513          	mv	a0,s0
800000c8:	2e1000ef          	jal	ra,80000ba8 <strcmp>
800000cc:	00153513          	seqz	a0,a0
800000d0:	f41ff0ef          	jal	ra,80000010 <check>
800000d4:	00812083          	lw	ra,8(sp)
800000d8:	00412403          	lw	s0,4(sp)
800000dc:	00000513          	li	a0,0
800000e0:	00c10113          	addi	sp,sp,12
800000e4:	00008067          	ret

800000e8 <halt>:
800000e8:	00050513          	mv	a0,a0
800000ec:	00100073          	ebreak
800000f0:	0000006f          	j	800000f0 <halt+0x8>

800000f4 <_trm_init>:
800000f4:	ff410113          	addi	sp,sp,-12
800000f8:	00001517          	auipc	a0,0x1
800000fc:	15c50513          	addi	a0,a0,348 # 80001254 <mainargs>
80000100:	00112423          	sw	ra,8(sp)
80000104:	f25ff0ef          	jal	ra,80000028 <main>
80000108:	00050513          	mv	a0,a0
8000010c:	00100073          	ebreak
80000110:	0000006f          	j	80000110 <_trm_init+0x1c>

80000114 <vsnprintf>:
80000114:	f8810113          	addi	sp,sp,-120
80000118:	06912623          	sw	s1,108(sp)
8000011c:	06112a23          	sw	ra,116(sp)
80000120:	06812823          	sw	s0,112(sp)
80000124:	00064783          	lbu	a5,0(a2)
80000128:	00b12e23          	sw	a1,28(sp)
8000012c:	00d12223          	sw	a3,4(sp)
80000130:	00050493          	mv	s1,a0
80000134:	140784e3          	beqz	a5,80000a7c <vsnprintf+0x968>
80000138:	00060313          	mv	t1,a2
8000013c:	00000393          	li	t2,0
80000140:	00058493          	mv	s1,a1
80000144:	00050293          	mv	t0,a0
80000148:	0240006f          	j	8000016c <vsnprintf+0x58>
8000014c:	00048863          	beqz	s1,8000015c <vsnprintf+0x48>
80000150:	00f28023          	sb	a5,0(t0)
80000154:	fff48493          	addi	s1,s1,-1
80000158:	00128293          	addi	t0,t0,1
8000015c:	00138393          	addi	t2,t2,1
80000160:	00040313          	mv	t1,s0
80000164:	00034783          	lbu	a5,0(t1)
80000168:	2c078e63          	beqz	a5,80000444 <vsnprintf+0x330>
8000016c:	02500713          	li	a4,37
80000170:	00130413          	addi	s0,t1,1
80000174:	fce79ce3          	bne	a5,a4,8000014c <vsnprintf+0x38>
80000178:	01800613          	li	a2,24
8000017c:	00000593          	li	a1,0
80000180:	03410513          	addi	a0,sp,52
80000184:	00612623          	sw	t1,12(sp)
80000188:	00512423          	sw	t0,8(sp)
8000018c:	00712023          	sw	t2,0(sp)
80000190:	261000ef          	jal	ra,80000bf0 <memset>
80000194:	00c12303          	lw	t1,12(sp)
80000198:	fff00793          	li	a5,-1
8000019c:	02f12e23          	sw	a5,60(sp)
800001a0:	00134703          	lbu	a4,1(t1)
800001a4:	04f12023          	sw	a5,64(sp)
800001a8:	00012383          	lw	t2,0(sp)
800001ac:	00812283          	lw	t0,8(sp)
800001b0:	16070863          	beqz	a4,80000320 <vsnprintf+0x20c>
800001b4:	00000593          	li	a1,0
800001b8:	00000513          	li	a0,0
800001bc:	00000313          	li	t1,0
800001c0:	00012023          	sw	zero,0(sp)
800001c4:	00012423          	sw	zero,8(sp)
800001c8:	01000613          	li	a2,16
800001cc:	00001697          	auipc	a3,0x1
800001d0:	0f868693          	addi	a3,a3,248 # 800012c4 <mainargs+0x70>
800001d4:	fe070793          	addi	a5,a4,-32
800001d8:	0ff7f793          	zext.b	a5,a5
800001dc:	00f66c63          	bltu	a2,a5,800001f4 <vsnprintf+0xe0>
800001e0:	00279793          	slli	a5,a5,0x2
800001e4:	00d787b3          	add	a5,a5,a3
800001e8:	0007a783          	lw	a5,0(a5)
800001ec:	00d787b3          	add	a5,a5,a3
800001f0:	00078067          	jr	a5
800001f4:	00058663          	beqz	a1,80000200 <vsnprintf+0xec>
800001f8:	00100793          	li	a5,1
800001fc:	02f10c23          	sb	a5,56(sp)
80000200:	00050663          	beqz	a0,8000020c <vsnprintf+0xf8>
80000204:	00100793          	li	a5,1
80000208:	02f10ba3          	sb	a5,55(sp)
8000020c:	00030663          	beqz	t1,80000218 <vsnprintf+0x104>
80000210:	00100793          	li	a5,1
80000214:	02f10b23          	sb	a5,54(sp)
80000218:	00012783          	lw	a5,0(sp)
8000021c:	00078663          	beqz	a5,80000228 <vsnprintf+0x114>
80000220:	00100793          	li	a5,1
80000224:	02f10aa3          	sb	a5,53(sp)
80000228:	00812783          	lw	a5,8(sp)
8000022c:	00078663          	beqz	a5,80000238 <vsnprintf+0x124>
80000230:	00100793          	li	a5,1
80000234:	02f10a23          	sb	a5,52(sp)
80000238:	02a00793          	li	a5,42
8000023c:	44f70863          	beq	a4,a5,8000068c <vsnprintf+0x578>
80000240:	fd070713          	addi	a4,a4,-48
80000244:	0ff77713          	zext.b	a4,a4
80000248:	00900793          	li	a5,9
8000024c:	00044683          	lbu	a3,0(s0)
80000250:	5ce7e063          	bltu	a5,a4,80000810 <vsnprintf+0x6fc>
80000254:	fd068713          	addi	a4,a3,-48
80000258:	02012e23          	sw	zero,60(sp)
8000025c:	0ff77613          	zext.b	a2,a4
80000260:	5ac7e863          	bltu	a5,a2,80000810 <vsnprintf+0x6fc>
80000264:	00000793          	li	a5,0
80000268:	00900613          	li	a2,9
8000026c:	00078593          	mv	a1,a5
80000270:	00144683          	lbu	a3,1(s0)
80000274:	00259793          	slli	a5,a1,0x2
80000278:	00b787b3          	add	a5,a5,a1
8000027c:	00179793          	slli	a5,a5,0x1
80000280:	00e785b3          	add	a1,a5,a4
80000284:	fd068713          	addi	a4,a3,-48
80000288:	0ff77793          	zext.b	a5,a4
8000028c:	00140413          	addi	s0,s0,1
80000290:	fef670e3          	bgeu	a2,a5,80000270 <vsnprintf+0x15c>
80000294:	02b12e23          	sw	a1,60(sp)
80000298:	00040313          	mv	t1,s0
8000029c:	02e00793          	li	a5,46
800002a0:	40f68863          	beq	a3,a5,800006b0 <vsnprintf+0x59c>
800002a4:	06800793          	li	a5,104
800002a8:	46f68463          	beq	a3,a5,80000710 <vsnprintf+0x5fc>
800002ac:	06c00793          	li	a5,108
800002b0:	06f69c63          	bne	a3,a5,80000328 <vsnprintf+0x214>
800002b4:	00134683          	lbu	a3,1(t1)
800002b8:	56f68a63          	beq	a3,a5,8000082c <vsnprintf+0x718>
800002bc:	00300793          	li	a5,3
800002c0:	04f12223          	sw	a5,68(sp)
800002c4:	00130313          	addi	t1,t1,1
800002c8:	0680006f          	j	80000330 <vsnprintf+0x21c>
800002cc:	00100593          	li	a1,1
800002d0:	00144703          	lbu	a4,1(s0)
800002d4:	00140413          	addi	s0,s0,1
800002d8:	ee071ee3          	bnez	a4,800001d4 <vsnprintf+0xc0>
800002dc:	00058663          	beqz	a1,800002e8 <vsnprintf+0x1d4>
800002e0:	00100793          	li	a5,1
800002e4:	02f10c23          	sb	a5,56(sp)
800002e8:	00050663          	beqz	a0,800002f4 <vsnprintf+0x1e0>
800002ec:	00100793          	li	a5,1
800002f0:	02f10ba3          	sb	a5,55(sp)
800002f4:	00030663          	beqz	t1,80000300 <vsnprintf+0x1ec>
800002f8:	00100793          	li	a5,1
800002fc:	02f10b23          	sb	a5,54(sp)
80000300:	00012783          	lw	a5,0(sp)
80000304:	00078663          	beqz	a5,80000310 <vsnprintf+0x1fc>
80000308:	00100793          	li	a5,1
8000030c:	02f10aa3          	sb	a5,53(sp)
80000310:	00812783          	lw	a5,8(sp)
80000314:	00078663          	beqz	a5,80000320 <vsnprintf+0x20c>
80000318:	00100793          	li	a5,1
8000031c:	02f10a23          	sb	a5,52(sp)
80000320:	00040313          	mv	t1,s0
80000324:	00000693          	li	a3,0
80000328:	04c00793          	li	a5,76
8000032c:	34f68663          	beq	a3,a5,80000678 <vsnprintf+0x564>
80000330:	04d10423          	sb	a3,72(sp)
80000334:	07800793          	li	a5,120
80000338:	00130313          	addi	t1,t1,1
8000033c:	e2d7e4e3          	bltu	a5,a3,80000164 <vsnprintf+0x50>
80000340:	06200793          	li	a5,98
80000344:	14d7f863          	bgeu	a5,a3,80000494 <vsnprintf+0x380>
80000348:	f9d68793          	addi	a5,a3,-99
8000034c:	00100613          	li	a2,1
80000350:	00241737          	lui	a4,0x241
80000354:	00f617b3          	sll	a5,a2,a5
80000358:	04270713          	addi	a4,a4,66 # 241042 <_entry_offset+0x241042>
8000035c:	00e7f733          	and	a4,a5,a4
80000360:	3e071863          	bnez	a4,80000750 <vsnprintf+0x63c>
80000364:	0017f793          	andi	a5,a5,1
80000368:	3c079063          	bnez	a5,80000728 <vsnprintf+0x614>
8000036c:	07300793          	li	a5,115
80000370:	def69ae3          	bne	a3,a5,80000164 <vsnprintf+0x50>
80000374:	00412783          	lw	a5,4(sp)
80000378:	0007a703          	lw	a4,0(a5)
8000037c:	00478413          	addi	s0,a5,4
80000380:	6c070c63          	beqz	a4,80000a58 <vsnprintf+0x944>
80000384:	04012603          	lw	a2,64(sp)
80000388:	5a064263          	bltz	a2,8000092c <vsnprintf+0x818>
8000038c:	74060e63          	beqz	a2,80000ae8 <vsnprintf+0x9d4>
80000390:	00000793          	li	a5,0
80000394:	0100006f          	j	800003a4 <vsnprintf+0x290>
80000398:	00178513          	addi	a0,a5,1
8000039c:	4ac55263          	bge	a0,a2,80000840 <vsnprintf+0x72c>
800003a0:	00050793          	mv	a5,a0
800003a4:	00f706b3          	add	a3,a4,a5
800003a8:	0006c683          	lbu	a3,0(a3)
800003ac:	fe0696e3          	bnez	a3,80000398 <vsnprintf+0x284>
800003b0:	03c12503          	lw	a0,60(sp)
800003b4:	03414603          	lbu	a2,52(sp)
800003b8:	fff78693          	addi	a3,a5,-1
800003bc:	00000593          	li	a1,0
800003c0:	4ca7ce63          	blt	a5,a0,8000089c <vsnprintf+0x788>
800003c4:	04078063          	beqz	a5,80000404 <vsnprintf+0x2f0>
800003c8:	00038793          	mv	a5,t2
800003cc:	00168693          	addi	a3,a3,1
800003d0:	007686b3          	add	a3,a3,t2
800003d4:	0200006f          	j	800003f4 <vsnprintf+0x2e0>
800003d8:	00048863          	beqz	s1,800003e8 <vsnprintf+0x2d4>
800003dc:	00a28023          	sb	a0,0(t0)
800003e0:	fff48493          	addi	s1,s1,-1
800003e4:	00128293          	addi	t0,t0,1
800003e8:	00138393          	addi	t2,t2,1
800003ec:	40768533          	sub	a0,a3,t2
800003f0:	00a05a63          	blez	a0,80000404 <vsnprintf+0x2f0>
800003f4:	40f38533          	sub	a0,t2,a5
800003f8:	00a70533          	add	a0,a4,a0
800003fc:	00054503          	lbu	a0,0(a0)
80000400:	fc051ce3          	bnez	a0,800003d8 <vsnprintf+0x2c4>
80000404:	00812223          	sw	s0,4(sp)
80000408:	d4060ee3          	beqz	a2,80000164 <vsnprintf+0x50>
8000040c:	fff58793          	addi	a5,a1,-1
80000410:	d4b05ae3          	blez	a1,80000164 <vsnprintf+0x50>
80000414:	02000693          	li	a3,32
80000418:	fff00713          	li	a4,-1
8000041c:	4a048463          	beqz	s1,800008c4 <vsnprintf+0x7b0>
80000420:	00d28023          	sb	a3,0(t0)
80000424:	fff48493          	addi	s1,s1,-1
80000428:	00128293          	addi	t0,t0,1
8000042c:	fff78793          	addi	a5,a5,-1
80000430:	fee796e3          	bne	a5,a4,8000041c <vsnprintf+0x308>
80000434:	00034783          	lbu	a5,0(t1)
80000438:	00812223          	sw	s0,4(sp)
8000043c:	00b383b3          	add	t2,t2,a1
80000440:	d20796e3          	bnez	a5,8000016c <vsnprintf+0x58>
80000444:	00028493          	mv	s1,t0
80000448:	00038513          	mv	a0,t2
8000044c:	01c12783          	lw	a5,28(sp)
80000450:	00078463          	beqz	a5,80000458 <vsnprintf+0x344>
80000454:	00048023          	sb	zero,0(s1)
80000458:	07412083          	lw	ra,116(sp)
8000045c:	07012403          	lw	s0,112(sp)
80000460:	06c12483          	lw	s1,108(sp)
80000464:	07810113          	addi	sp,sp,120
80000468:	00008067          	ret
8000046c:	00100513          	li	a0,1
80000470:	e61ff06f          	j	800002d0 <vsnprintf+0x1bc>
80000474:	00100313          	li	t1,1
80000478:	e59ff06f          	j	800002d0 <vsnprintf+0x1bc>
8000047c:	00100793          	li	a5,1
80000480:	00f12023          	sw	a5,0(sp)
80000484:	e4dff06f          	j	800002d0 <vsnprintf+0x1bc>
80000488:	00100793          	li	a5,1
8000048c:	00f12423          	sw	a5,8(sp)
80000490:	e41ff06f          	j	800002d0 <vsnprintf+0x1bc>
80000494:	02500793          	li	a5,37
80000498:	00f69e63          	bne	a3,a5,800004b4 <vsnprintf+0x3a0>
8000049c:	00048863          	beqz	s1,800004ac <vsnprintf+0x398>
800004a0:	00d28023          	sb	a3,0(t0)
800004a4:	fff48493          	addi	s1,s1,-1
800004a8:	00128293          	addi	t0,t0,1
800004ac:	00138393          	addi	t2,t2,1
800004b0:	cb5ff06f          	j	80000164 <vsnprintf+0x50>
800004b4:	05800793          	li	a5,88
800004b8:	caf696e3          	bne	a3,a5,80000164 <vsnprintf+0x50>
800004bc:	04412783          	lw	a5,68(sp)
800004c0:	00300713          	li	a4,3
800004c4:	60e78663          	beq	a5,a4,80000ad0 <vsnprintf+0x9bc>
800004c8:	48f76863          	bltu	a4,a5,80000958 <vsnprintf+0x844>
800004cc:	00100713          	li	a4,1
800004d0:	66e78263          	beq	a5,a4,80000b34 <vsnprintf+0xa20>
800004d4:	00200713          	li	a4,2
800004d8:	5ee79c63          	bne	a5,a4,80000ad0 <vsnprintf+0x9bc>
800004dc:	00412703          	lw	a4,4(sp)
800004e0:	00000793          	li	a5,0
800004e4:	00075403          	lhu	s0,0(a4)
800004e8:	00470713          	addi	a4,a4,4
800004ec:	00e12223          	sw	a4,4(sp)
800004f0:	05800613          	li	a2,88
800004f4:	02012023          	sw	zero,32(sp)
800004f8:	2cc69c63          	bne	a3,a2,800007d0 <vsnprintf+0x6bc>
800004fc:	00001717          	auipc	a4,0x1
80000500:	dac70713          	addi	a4,a4,-596 # 800012a8 <mainargs+0x54>
80000504:	00a00613          	li	a2,10
80000508:	00012823          	sw	zero,16(sp)
8000050c:	00e12623          	sw	a4,12(sp)
80000510:	02912423          	sw	s1,40(sp)
80000514:	00012023          	sw	zero,0(sp)
80000518:	02712223          	sw	t2,36(sp)
8000051c:	02512623          	sw	t0,44(sp)
80000520:	02612823          	sw	t1,48(sp)
80000524:	00078493          	mv	s1,a5
80000528:	00000693          	li	a3,0
8000052c:	00040513          	mv	a0,s0
80000530:	00048593          	mv	a1,s1
80000534:	00c12423          	sw	a2,8(sp)
80000538:	2e9000ef          	jal	ra,80001020 <__umoddi3>
8000053c:	00c12783          	lw	a5,12(sp)
80000540:	00012703          	lw	a4,0(sp)
80000544:	00812603          	lw	a2,8(sp)
80000548:	00a78533          	add	a0,a5,a0
8000054c:	00054783          	lbu	a5,0(a0)
80000550:	00170713          	addi	a4,a4,1
80000554:	04c10693          	addi	a3,sp,76
80000558:	00e12023          	sw	a4,0(sp)
8000055c:	00e68733          	add	a4,a3,a4
80000560:	00040513          	mv	a0,s0
80000564:	00048593          	mv	a1,s1
80000568:	00000693          	li	a3,0
8000056c:	fef70fa3          	sb	a5,-1(a4)
80000570:	00f12c23          	sw	a5,24(sp)
80000574:	00e12a23          	sw	a4,20(sp)
80000578:	2a1000ef          	jal	ra,80001018 <__udivdi3>
8000057c:	01012783          	lw	a5,16(sp)
80000580:	00048693          	mv	a3,s1
80000584:	00040313          	mv	t1,s0
80000588:	00812603          	lw	a2,8(sp)
8000058c:	00058493          	mv	s1,a1
80000590:	00050413          	mv	s0,a0
80000594:	f8d79ae3          	bne	a5,a3,80000528 <vsnprintf+0x414>
80000598:	f8c378e3          	bgeu	t1,a2,80000528 <vsnprintf+0x414>
8000059c:	04012783          	lw	a5,64(sp)
800005a0:	00012703          	lw	a4,0(sp)
800005a4:	02412383          	lw	t2,36(sp)
800005a8:	02812483          	lw	s1,40(sp)
800005ac:	02c12283          	lw	t0,44(sp)
800005b0:	03012303          	lw	t1,48(sp)
800005b4:	48f75c63          	bge	a4,a5,80000a4c <vsnprintf+0x938>
800005b8:	40e785b3          	sub	a1,a5,a4
800005bc:	fff58513          	addi	a0,a1,-1
800005c0:	02012783          	lw	a5,32(sp)
800005c4:	40079063          	bnez	a5,800009c4 <vsnprintf+0x8b0>
800005c8:	03514783          	lbu	a5,53(sp)
800005cc:	4e079063          	bnez	a5,80000aac <vsnprintf+0x998>
800005d0:	03614783          	lbu	a5,54(sp)
800005d4:	00579793          	slli	a5,a5,0x5
800005d8:	0ff7f413          	zext.b	s0,a5
800005dc:	008037b3          	snez	a5,s0
800005e0:	00012683          	lw	a3,0(sp)
800005e4:	03c12703          	lw	a4,60(sp)
800005e8:	00f587b3          	add	a5,a1,a5
800005ec:	00d787b3          	add	a5,a5,a3
800005f0:	38e7c463          	blt	a5,a4,80000978 <vsnprintf+0x864>
800005f4:	03814783          	lbu	a5,56(sp)
800005f8:	00012423          	sw	zero,8(sp)
800005fc:	03414683          	lbu	a3,52(sp)
80000600:	3c079863          	bnez	a5,800009d0 <vsnprintf+0x8bc>
80000604:	40069863          	bnez	a3,80000a14 <vsnprintf+0x900>
80000608:	00000613          	li	a2,0
8000060c:	50041263          	bnez	s0,80000b10 <vsnprintf+0x9fc>
80000610:	00050793          	mv	a5,a0
80000614:	03000693          	li	a3,48
80000618:	02058a63          	beqz	a1,8000064c <vsnprintf+0x538>
8000061c:	28048e63          	beqz	s1,800008b8 <vsnprintf+0x7a4>
80000620:	00d28023          	sb	a3,0(t0)
80000624:	fff48493          	addi	s1,s1,-1
80000628:	00078713          	mv	a4,a5
8000062c:	00128293          	addi	t0,t0,1
80000630:	fff70793          	addi	a5,a4,-1
80000634:	fee044e3          	bgtz	a4,8000061c <vsnprintf+0x508>
80000638:	fff54793          	not	a5,a0
8000063c:	41f7d793          	srai	a5,a5,0x1f
80000640:	00f577b3          	and	a5,a0,a5
80000644:	00178793          	addi	a5,a5,1
80000648:	00f383b3          	add	t2,t2,a5
8000064c:	01412783          	lw	a5,20(sp)
80000650:	01812703          	lw	a4,24(sp)
80000654:	00048863          	beqz	s1,80000664 <vsnprintf+0x550>
80000658:	00e28023          	sb	a4,0(t0)
8000065c:	fff48493          	addi	s1,s1,-1
80000660:	00128293          	addi	t0,t0,1
80000664:	fff78793          	addi	a5,a5,-1
80000668:	04c10713          	addi	a4,sp,76
8000066c:	26f70863          	beq	a4,a5,800008dc <vsnprintf+0x7c8>
80000670:	fff7c703          	lbu	a4,-1(a5)
80000674:	fe1ff06f          	j	80000654 <vsnprintf+0x540>
80000678:	00500793          	li	a5,5
8000067c:	00134683          	lbu	a3,1(t1)
80000680:	04f12223          	sw	a5,68(sp)
80000684:	00130313          	addi	t1,t1,1
80000688:	ca9ff06f          	j	80000330 <vsnprintf+0x21c>
8000068c:	00412703          	lw	a4,4(sp)
80000690:	00144683          	lbu	a3,1(s0)
80000694:	00140313          	addi	t1,s0,1
80000698:	00072783          	lw	a5,0(a4)
8000069c:	02f12e23          	sw	a5,60(sp)
800006a0:	00470793          	addi	a5,a4,4
800006a4:	00f12223          	sw	a5,4(sp)
800006a8:	02e00793          	li	a5,46
800006ac:	bef69ce3          	bne	a3,a5,800002a4 <vsnprintf+0x190>
800006b0:	00134683          	lbu	a3,1(t1)
800006b4:	02a00793          	li	a5,42
800006b8:	12f68c63          	beq	a3,a5,800007f0 <vsnprintf+0x6dc>
800006bc:	fd068713          	addi	a4,a3,-48
800006c0:	04012023          	sw	zero,64(sp)
800006c4:	0ff77613          	zext.b	a2,a4
800006c8:	00900793          	li	a5,9
800006cc:	00130313          	addi	t1,t1,1
800006d0:	bcc7eae3          	bltu	a5,a2,800002a4 <vsnprintf+0x190>
800006d4:	00000793          	li	a5,0
800006d8:	00900613          	li	a2,9
800006dc:	00078593          	mv	a1,a5
800006e0:	00134683          	lbu	a3,1(t1)
800006e4:	00259793          	slli	a5,a1,0x2
800006e8:	00b787b3          	add	a5,a5,a1
800006ec:	00179793          	slli	a5,a5,0x1
800006f0:	00e785b3          	add	a1,a5,a4
800006f4:	fd068713          	addi	a4,a3,-48
800006f8:	0ff77793          	zext.b	a5,a4
800006fc:	00130313          	addi	t1,t1,1
80000700:	fef670e3          	bgeu	a2,a5,800006e0 <vsnprintf+0x5cc>
80000704:	04b12023          	sw	a1,64(sp)
80000708:	06800793          	li	a5,104
8000070c:	baf690e3          	bne	a3,a5,800002ac <vsnprintf+0x198>
80000710:	00134683          	lbu	a3,1(t1)
80000714:	10f68263          	beq	a3,a5,80000818 <vsnprintf+0x704>
80000718:	00200793          	li	a5,2
8000071c:	04f12223          	sw	a5,68(sp)
80000720:	00130313          	addi	t1,t1,1
80000724:	c0dff06f          	j	80000330 <vsnprintf+0x21c>
80000728:	00412703          	lw	a4,4(sp)
8000072c:	00470793          	addi	a5,a4,4
80000730:	00048a63          	beqz	s1,80000744 <vsnprintf+0x630>
80000734:	00072703          	lw	a4,0(a4)
80000738:	00128293          	addi	t0,t0,1
8000073c:	fff48493          	addi	s1,s1,-1
80000740:	fee28fa3          	sb	a4,-1(t0)
80000744:	00138393          	addi	t2,t2,1
80000748:	00f12223          	sw	a5,4(sp)
8000074c:	a19ff06f          	j	80000164 <vsnprintf+0x50>
80000750:	f9c68793          	addi	a5,a3,-100
80000754:	0ff7f793          	zext.b	a5,a5
80000758:	01400713          	li	a4,20
8000075c:	a0f764e3          	bltu	a4,a5,80000164 <vsnprintf+0x50>
80000760:	00121737          	lui	a4,0x121
80000764:	00f617b3          	sll	a5,a2,a5
80000768:	80070713          	addi	a4,a4,-2048 # 120800 <_entry_offset+0x120800>
8000076c:	00e7f733          	and	a4,a5,a4
80000770:	d40716e3          	bnez	a4,800004bc <vsnprintf+0x3a8>
80000774:	0217f793          	andi	a5,a5,33
80000778:	9e0786e3          	beqz	a5,80000164 <vsnprintf+0x50>
8000077c:	04412783          	lw	a5,68(sp)
80000780:	00300713          	li	a4,3
80000784:	32e78a63          	beq	a5,a4,80000ab8 <vsnprintf+0x9a4>
80000788:	1af76863          	bltu	a4,a5,80000938 <vsnprintf+0x824>
8000078c:	38c78863          	beq	a5,a2,80000b1c <vsnprintf+0xa08>
80000790:	00200713          	li	a4,2
80000794:	32e79263          	bne	a5,a4,80000ab8 <vsnprintf+0x9a4>
80000798:	00412783          	lw	a5,4(sp)
8000079c:	00079703          	lh	a4,0(a5)
800007a0:	00478793          	addi	a5,a5,4
800007a4:	00f12223          	sw	a5,4(sp)
800007a8:	41f75793          	srai	a5,a4,0x1f
800007ac:	02012023          	sw	zero,32(sp)
800007b0:	00070413          	mv	s0,a4
800007b4:	0007de63          	bgez	a5,800007d0 <vsnprintf+0x6bc>
800007b8:	00e03633          	snez	a2,a4
800007bc:	40f007b3          	neg	a5,a5
800007c0:	40e00433          	neg	s0,a4
800007c4:	00100713          	li	a4,1
800007c8:	40c787b3          	sub	a5,a5,a2
800007cc:	02e12023          	sw	a4,32(sp)
800007d0:	06f00613          	li	a2,111
800007d4:	26c69063          	bne	a3,a2,80000a34 <vsnprintf+0x920>
800007d8:	00001717          	auipc	a4,0x1
800007dc:	abc70713          	addi	a4,a4,-1348 # 80001294 <mainargs+0x40>
800007e0:	00800613          	li	a2,8
800007e4:	00012823          	sw	zero,16(sp)
800007e8:	00e12623          	sw	a4,12(sp)
800007ec:	d25ff06f          	j	80000510 <vsnprintf+0x3fc>
800007f0:	00412703          	lw	a4,4(sp)
800007f4:	00234683          	lbu	a3,2(t1)
800007f8:	00230313          	addi	t1,t1,2
800007fc:	00072783          	lw	a5,0(a4)
80000800:	00470713          	addi	a4,a4,4
80000804:	00e12223          	sw	a4,4(sp)
80000808:	04f12023          	sw	a5,64(sp)
8000080c:	a99ff06f          	j	800002a4 <vsnprintf+0x190>
80000810:	00040313          	mv	t1,s0
80000814:	a89ff06f          	j	8000029c <vsnprintf+0x188>
80000818:	00100793          	li	a5,1
8000081c:	00234683          	lbu	a3,2(t1)
80000820:	04f12223          	sw	a5,68(sp)
80000824:	00230313          	addi	t1,t1,2
80000828:	b09ff06f          	j	80000330 <vsnprintf+0x21c>
8000082c:	00400793          	li	a5,4
80000830:	00234683          	lbu	a3,2(t1)
80000834:	04f12223          	sw	a5,68(sp)
80000838:	00230313          	addi	t1,t1,2
8000083c:	af5ff06f          	j	80000330 <vsnprintf+0x21c>
80000840:	03c12583          	lw	a1,60(sp)
80000844:	03414603          	lbu	a2,52(sp)
80000848:	06b55063          	bge	a0,a1,800008a8 <vsnprintf+0x794>
8000084c:	00078693          	mv	a3,a5
80000850:	40a585b3          	sub	a1,a1,a0
80000854:	00038793          	mv	a5,t2
80000858:	b6061ae3          	bnez	a2,800003cc <vsnprintf+0x2b8>
8000085c:	00050793          	mv	a5,a0
80000860:	fff58613          	addi	a2,a1,-1
80000864:	2eb05e63          	blez	a1,80000b60 <vsnprintf+0xa4c>
80000868:	fff00513          	li	a0,-1
8000086c:	00f12023          	sw	a5,0(sp)
80000870:	06048063          	beqz	s1,800008d0 <vsnprintf+0x7bc>
80000874:	02000793          	li	a5,32
80000878:	00f28023          	sb	a5,0(t0)
8000087c:	fff48493          	addi	s1,s1,-1
80000880:	00128293          	addi	t0,t0,1
80000884:	fff60613          	addi	a2,a2,-1
80000888:	fea614e3          	bne	a2,a0,80000870 <vsnprintf+0x75c>
8000088c:	00012783          	lw	a5,0(sp)
80000890:	00b383b3          	add	t2,t2,a1
80000894:	00000613          	li	a2,0
80000898:	b2dff06f          	j	800003c4 <vsnprintf+0x2b0>
8000089c:	40f505b3          	sub	a1,a0,a5
800008a0:	b20612e3          	bnez	a2,800003c4 <vsnprintf+0x2b0>
800008a4:	fbdff06f          	j	80000860 <vsnprintf+0x74c>
800008a8:	00078693          	mv	a3,a5
800008ac:	00000593          	li	a1,0
800008b0:	00038793          	mv	a5,t2
800008b4:	b19ff06f          	j	800003cc <vsnprintf+0x2b8>
800008b8:	fff78713          	addi	a4,a5,-1
800008bc:	d6f04ae3          	bgtz	a5,80000630 <vsnprintf+0x51c>
800008c0:	d79ff06f          	j	80000638 <vsnprintf+0x524>
800008c4:	fff78793          	addi	a5,a5,-1
800008c8:	b6e792e3          	bne	a5,a4,8000042c <vsnprintf+0x318>
800008cc:	b69ff06f          	j	80000434 <vsnprintf+0x320>
800008d0:	fff60613          	addi	a2,a2,-1
800008d4:	faa618e3          	bne	a2,a0,80000884 <vsnprintf+0x770>
800008d8:	fb5ff06f          	j	8000088c <vsnprintf+0x778>
800008dc:	00012783          	lw	a5,0(sp)
800008e0:	00f383b3          	add	t2,t2,a5
800008e4:	880600e3          	beqz	a2,80000164 <vsnprintf+0x50>
800008e8:	00812703          	lw	a4,8(sp)
800008ec:	fff70793          	addi	a5,a4,-1
800008f0:	86070ae3          	beqz	a4,80000164 <vsnprintf+0x50>
800008f4:	02000693          	li	a3,32
800008f8:	fff00713          	li	a4,-1
800008fc:	02048263          	beqz	s1,80000920 <vsnprintf+0x80c>
80000900:	00d28023          	sb	a3,0(t0)
80000904:	fff48493          	addi	s1,s1,-1
80000908:	00128293          	addi	t0,t0,1
8000090c:	fff78793          	addi	a5,a5,-1
80000910:	fee796e3          	bne	a5,a4,800008fc <vsnprintf+0x7e8>
80000914:	00812783          	lw	a5,8(sp)
80000918:	00f383b3          	add	t2,t2,a5
8000091c:	849ff06f          	j	80000164 <vsnprintf+0x50>
80000920:	fff78793          	addi	a5,a5,-1
80000924:	fee794e3          	bne	a5,a4,8000090c <vsnprintf+0x7f8>
80000928:	fedff06f          	j	80000914 <vsnprintf+0x800>
8000092c:	80000637          	lui	a2,0x80000
80000930:	fff64613          	not	a2,a2
80000934:	a5dff06f          	j	80000390 <vsnprintf+0x27c>
80000938:	00400713          	li	a4,4
8000093c:	16e79e63          	bne	a5,a4,80000ab8 <vsnprintf+0x9a4>
80000940:	00412603          	lw	a2,4(sp)
80000944:	00062703          	lw	a4,0(a2) # 80000000 <_end+0xffff6000>
80000948:	00462783          	lw	a5,4(a2)
8000094c:	00860613          	addi	a2,a2,8
80000950:	00c12223          	sw	a2,4(sp)
80000954:	e59ff06f          	j	800007ac <vsnprintf+0x698>
80000958:	00400713          	li	a4,4
8000095c:	16e79a63          	bne	a5,a4,80000ad0 <vsnprintf+0x9bc>
80000960:	00412703          	lw	a4,4(sp)
80000964:	00072403          	lw	s0,0(a4)
80000968:	00472783          	lw	a5,4(a4)
8000096c:	00870713          	addi	a4,a4,8
80000970:	00e12223          	sw	a4,4(sp)
80000974:	b7dff06f          	j	800004f0 <vsnprintf+0x3dc>
80000978:	03814603          	lbu	a2,56(sp)
8000097c:	40f707b3          	sub	a5,a4,a5
80000980:	00f12423          	sw	a5,8(sp)
80000984:	03414683          	lbu	a3,52(sp)
80000988:	04061463          	bnez	a2,800009d0 <vsnprintf+0x8bc>
8000098c:	08069463          	bnez	a3,80000a14 <vsnprintf+0x900>
80000990:	00812783          	lw	a5,8(sp)
80000994:	02000693          	li	a3,32
80000998:	fff00713          	li	a4,-1
8000099c:	fff78793          	addi	a5,a5,-1
800009a0:	0c048263          	beqz	s1,80000a64 <vsnprintf+0x950>
800009a4:	00d28023          	sb	a3,0(t0)
800009a8:	fff48493          	addi	s1,s1,-1
800009ac:	00128293          	addi	t0,t0,1
800009b0:	fff78793          	addi	a5,a5,-1
800009b4:	fee796e3          	bne	a5,a4,800009a0 <vsnprintf+0x88c>
800009b8:	00812783          	lw	a5,8(sp)
800009bc:	00f383b3          	add	t2,t2,a5
800009c0:	c49ff06f          	j	80000608 <vsnprintf+0x4f4>
800009c4:	00100793          	li	a5,1
800009c8:	02d00413          	li	s0,45
800009cc:	c15ff06f          	j	800005e0 <vsnprintf+0x4cc>
800009d0:	04069263          	bnez	a3,80000a14 <vsnprintf+0x900>
800009d4:	0a041e63          	bnez	s0,80000a90 <vsnprintf+0x97c>
800009d8:	00812603          	lw	a2,8(sp)
800009dc:	03000693          	li	a3,48
800009e0:	fff00713          	li	a4,-1
800009e4:	fff60793          	addi	a5,a2,-1
800009e8:	c20604e3          	beqz	a2,80000610 <vsnprintf+0x4fc>
800009ec:	08048263          	beqz	s1,80000a70 <vsnprintf+0x95c>
800009f0:	00d28023          	sb	a3,0(t0)
800009f4:	fff48493          	addi	s1,s1,-1
800009f8:	00128293          	addi	t0,t0,1
800009fc:	fff78793          	addi	a5,a5,-1
80000a00:	fee796e3          	bne	a5,a4,800009ec <vsnprintf+0x8d8>
80000a04:	00812783          	lw	a5,8(sp)
80000a08:	00000613          	li	a2,0
80000a0c:	00f383b3          	add	t2,t2,a5
80000a10:	c01ff06f          	j	80000610 <vsnprintf+0x4fc>
80000a14:	06040a63          	beqz	s0,80000a88 <vsnprintf+0x974>
80000a18:	06048663          	beqz	s1,80000a84 <vsnprintf+0x970>
80000a1c:	00828023          	sb	s0,0(t0)
80000a20:	fff48493          	addi	s1,s1,-1
80000a24:	00138393          	addi	t2,t2,1
80000a28:	00128293          	addi	t0,t0,1
80000a2c:	00100613          	li	a2,1
80000a30:	be1ff06f          	j	80000610 <vsnprintf+0x4fc>
80000a34:	00001717          	auipc	a4,0x1
80000a38:	86070713          	addi	a4,a4,-1952 # 80001294 <mainargs+0x40>
80000a3c:	00a00613          	li	a2,10
80000a40:	00012823          	sw	zero,16(sp)
80000a44:	00e12623          	sw	a4,12(sp)
80000a48:	ac9ff06f          	j	80000510 <vsnprintf+0x3fc>
80000a4c:	fff00513          	li	a0,-1
80000a50:	00000593          	li	a1,0
80000a54:	b6dff06f          	j	800005c0 <vsnprintf+0x4ac>
80000a58:	00001717          	auipc	a4,0x1
80000a5c:	86470713          	addi	a4,a4,-1948 # 800012bc <mainargs+0x68>
80000a60:	925ff06f          	j	80000384 <vsnprintf+0x270>
80000a64:	fff78793          	addi	a5,a5,-1
80000a68:	f4e794e3          	bne	a5,a4,800009b0 <vsnprintf+0x89c>
80000a6c:	f4dff06f          	j	800009b8 <vsnprintf+0x8a4>
80000a70:	fff78793          	addi	a5,a5,-1
80000a74:	f8e794e3          	bne	a5,a4,800009fc <vsnprintf+0x8e8>
80000a78:	f8dff06f          	j	80000a04 <vsnprintf+0x8f0>
80000a7c:	00000513          	li	a0,0
80000a80:	9cdff06f          	j	8000044c <vsnprintf+0x338>
80000a84:	00138393          	addi	t2,t2,1
80000a88:	00100613          	li	a2,1
80000a8c:	b85ff06f          	j	80000610 <vsnprintf+0x4fc>
80000a90:	03000713          	li	a4,48
80000a94:	06049463          	bnez	s1,80000afc <vsnprintf+0x9e8>
80000a98:	00138393          	addi	t2,t2,1
80000a9c:	03000793          	li	a5,48
80000aa0:	00000613          	li	a2,0
80000aa4:	b6f716e3          	bne	a4,a5,80000610 <vsnprintf+0x4fc>
80000aa8:	f31ff06f          	j	800009d8 <vsnprintf+0x8c4>
80000aac:	00100793          	li	a5,1
80000ab0:	02b00413          	li	s0,43
80000ab4:	b2dff06f          	j	800005e0 <vsnprintf+0x4cc>
80000ab8:	00412783          	lw	a5,4(sp)
80000abc:	0007a703          	lw	a4,0(a5)
80000ac0:	00478793          	addi	a5,a5,4
80000ac4:	00f12223          	sw	a5,4(sp)
80000ac8:	41f75793          	srai	a5,a4,0x1f
80000acc:	ce1ff06f          	j	800007ac <vsnprintf+0x698>
80000ad0:	00412703          	lw	a4,4(sp)
80000ad4:	00000793          	li	a5,0
80000ad8:	00072403          	lw	s0,0(a4)
80000adc:	00470713          	addi	a4,a4,4
80000ae0:	00e12223          	sw	a4,4(sp)
80000ae4:	a0dff06f          	j	800004f0 <vsnprintf+0x3dc>
80000ae8:	03c12583          	lw	a1,60(sp)
80000aec:	03414603          	lbu	a2,52(sp)
80000af0:	04b04e63          	bgtz	a1,80000b4c <vsnprintf+0xa38>
80000af4:	00812223          	sw	s0,4(sp)
80000af8:	e6cff06f          	j	80000164 <vsnprintf+0x50>
80000afc:	00828023          	sb	s0,0(t0)
80000b00:	fff48493          	addi	s1,s1,-1
80000b04:	00138393          	addi	t2,t2,1
80000b08:	00128293          	addi	t0,t0,1
80000b0c:	f91ff06f          	j	80000a9c <vsnprintf+0x988>
80000b10:	02000713          	li	a4,32
80000b14:	f80482e3          	beqz	s1,80000a98 <vsnprintf+0x984>
80000b18:	fe5ff06f          	j	80000afc <vsnprintf+0x9e8>
80000b1c:	00412783          	lw	a5,4(sp)
80000b20:	00078703          	lb	a4,0(a5)
80000b24:	00478793          	addi	a5,a5,4
80000b28:	00f12223          	sw	a5,4(sp)
80000b2c:	41f75793          	srai	a5,a4,0x1f
80000b30:	c7dff06f          	j	800007ac <vsnprintf+0x698>
80000b34:	00412703          	lw	a4,4(sp)
80000b38:	00000793          	li	a5,0
80000b3c:	00074403          	lbu	s0,0(a4)
80000b40:	00470713          	addi	a4,a4,4
80000b44:	00e12223          	sw	a4,4(sp)
80000b48:	9a9ff06f          	j	800004f0 <vsnprintf+0x3dc>
80000b4c:	8a061ce3          	bnez	a2,80000404 <vsnprintf+0x2f0>
80000b50:	fff58613          	addi	a2,a1,-1
80000b54:	00000793          	li	a5,0
80000b58:	fff00693          	li	a3,-1
80000b5c:	d0dff06f          	j	80000868 <vsnprintf+0x754>
80000b60:	00000613          	li	a2,0
80000b64:	861ff06f          	j	800003c4 <vsnprintf+0x2b0>

80000b68 <sprintf>:
80000b68:	fe010113          	addi	sp,sp,-32
80000b6c:	01010313          	addi	t1,sp,16
80000b70:	00c12823          	sw	a2,16(sp)
80000b74:	00058613          	mv	a2,a1
80000b78:	800005b7          	lui	a1,0x80000
80000b7c:	00d12a23          	sw	a3,20(sp)
80000b80:	fff5c593          	not	a1,a1
80000b84:	00030693          	mv	a3,t1
80000b88:	00112623          	sw	ra,12(sp)
80000b8c:	00e12c23          	sw	a4,24(sp)
80000b90:	00f12e23          	sw	a5,28(sp)
80000b94:	00612023          	sw	t1,0(sp)
80000b98:	d7cff0ef          	jal	ra,80000114 <vsnprintf>
80000b9c:	00c12083          	lw	ra,12(sp)
80000ba0:	02010113          	addi	sp,sp,32
80000ba4:	00008067          	ret

80000ba8 <strcmp>:
80000ba8:	00054683          	lbu	a3,0(a0)
80000bac:	00000793          	li	a5,0
80000bb0:	00069a63          	bnez	a3,80000bc4 <strcmp+0x1c>
80000bb4:	0300006f          	j	80000be4 <strcmp+0x3c>
80000bb8:	02d71063          	bne	a4,a3,80000bd8 <strcmp+0x30>
80000bbc:	00064683          	lbu	a3,0(a2)
80000bc0:	02068063          	beqz	a3,80000be0 <strcmp+0x38>
80000bc4:	00f58733          	add	a4,a1,a5
80000bc8:	00074703          	lbu	a4,0(a4)
80000bcc:	00178793          	addi	a5,a5,1
80000bd0:	00f50633          	add	a2,a0,a5
80000bd4:	fe0712e3          	bnez	a4,80000bb8 <strcmp+0x10>
80000bd8:	40e68533          	sub	a0,a3,a4
80000bdc:	00008067          	ret
80000be0:	00f585b3          	add	a1,a1,a5
80000be4:	0005c703          	lbu	a4,0(a1) # 80000000 <_end+0xffff6000>
80000be8:	40e68533          	sub	a0,a3,a4
80000bec:	00008067          	ret

80000bf0 <memset>:
80000bf0:	0ff5f593          	zext.b	a1,a1
80000bf4:	00050793          	mv	a5,a0
80000bf8:	00a60733          	add	a4,a2,a0
80000bfc:	00060863          	beqz	a2,80000c0c <memset+0x1c>
80000c00:	00b78023          	sb	a1,0(a5)
80000c04:	00178793          	addi	a5,a5,1
80000c08:	fee79ce3          	bne	a5,a4,80000c00 <memset+0x10>
80000c0c:	00008067          	ret

80000c10 <__udivmoddi4>:
80000c10:	fe010113          	addi	sp,sp,-32
80000c14:	00912a23          	sw	s1,20(sp)
80000c18:	00112e23          	sw	ra,28(sp)
80000c1c:	00812c23          	sw	s0,24(sp)
80000c20:	00e12223          	sw	a4,4(sp)
80000c24:	00050313          	mv	t1,a0
80000c28:	00060493          	mv	s1,a2
80000c2c:	04059663          	bnez	a1,80000c78 <__udivmoddi4+0x68>
80000c30:	20069463          	bnez	a3,80000e38 <__udivmoddi4+0x228>
80000c34:	00070413          	mv	s0,a4
80000c38:	00070e63          	beqz	a4,80000c54 <__udivmoddi4+0x44>
80000c3c:	00048593          	mv	a1,s1
80000c40:	00a12023          	sw	a0,0(sp)
80000c44:	56c000ef          	jal	ra,800011b0 <__umodsi3>
80000c48:	00012303          	lw	t1,0(sp)
80000c4c:	00a42023          	sw	a0,0(s0)
80000c50:	00042223          	sw	zero,4(s0)
80000c54:	00048593          	mv	a1,s1
80000c58:	00030513          	mv	a0,t1
80000c5c:	50c000ef          	jal	ra,80001168 <__hidden___udivsi3>
80000c60:	00000593          	li	a1,0
80000c64:	01c12083          	lw	ra,28(sp)
80000c68:	01812403          	lw	s0,24(sp)
80000c6c:	01412483          	lw	s1,20(sp)
80000c70:	02010113          	addi	sp,sp,32
80000c74:	00008067          	ret
80000c78:	00058793          	mv	a5,a1
80000c7c:	08061263          	bnez	a2,80000d00 <__udivmoddi4+0xf0>
80000c80:	24068263          	beqz	a3,80000ec4 <__udivmoddi4+0x2b4>
80000c84:	2c050a63          	beqz	a0,80000f58 <__udivmoddi4+0x348>
80000c88:	fff68613          	addi	a2,a3,-1
80000c8c:	00d675b3          	and	a1,a2,a3
80000c90:	32058463          	beqz	a1,80000fb8 <__udivmoddi4+0x3a8>
80000c94:	00a12623          	sw	a0,12(sp)
80000c98:	00068513          	mv	a0,a3
80000c9c:	00f12823          	sw	a5,16(sp)
80000ca0:	00f12023          	sw	a5,0(sp)
80000ca4:	00d12423          	sw	a3,8(sp)
80000ca8:	3ac000ef          	jal	ra,80001054 <__clzsi2>
80000cac:	00012703          	lw	a4,0(sp)
80000cb0:	00050413          	mv	s0,a0
80000cb4:	00070513          	mv	a0,a4
80000cb8:	39c000ef          	jal	ra,80001054 <__clzsi2>
80000cbc:	40a40533          	sub	a0,s0,a0
80000cc0:	01e00613          	li	a2,30
80000cc4:	00012703          	lw	a4,0(sp)
80000cc8:	00812683          	lw	a3,8(sp)
80000ccc:	00c12303          	lw	t1,12(sp)
80000cd0:	01012783          	lw	a5,16(sp)
80000cd4:	1ea66a63          	bltu	a2,a0,80000ec8 <__udivmoddi4+0x2b8>
80000cd8:	00150393          	addi	t2,a0,1
80000cdc:	02000613          	li	a2,32
80000ce0:	40760633          	sub	a2,a2,t2
80000ce4:	00c712b3          	sll	t0,a4,a2
80000ce8:	007355b3          	srl	a1,t1,t2
80000cec:	007757b3          	srl	a5,a4,t2
80000cf0:	00c31533          	sll	a0,t1,a2
80000cf4:	00b2e733          	or	a4,t0,a1
80000cf8:	00000413          	li	s0,0
80000cfc:	0780006f          	j	80000d74 <__udivmoddi4+0x164>
80000d00:	16068263          	beqz	a3,80000e64 <__udivmoddi4+0x254>
80000d04:	00a12423          	sw	a0,8(sp)
80000d08:	00068513          	mv	a0,a3
80000d0c:	00b12623          	sw	a1,12(sp)
80000d10:	00b12023          	sw	a1,0(sp)
80000d14:	00d12823          	sw	a3,16(sp)
80000d18:	33c000ef          	jal	ra,80001054 <__clzsi2>
80000d1c:	00012703          	lw	a4,0(sp)
80000d20:	00050413          	mv	s0,a0
80000d24:	00070513          	mv	a0,a4
80000d28:	32c000ef          	jal	ra,80001054 <__clzsi2>
80000d2c:	40a40533          	sub	a0,s0,a0
80000d30:	01f00613          	li	a2,31
80000d34:	00812303          	lw	t1,8(sp)
80000d38:	00c12783          	lw	a5,12(sp)
80000d3c:	18a66663          	bltu	a2,a0,80000ec8 <__udivmoddi4+0x2b8>
80000d40:	00150393          	addi	t2,a0,1
80000d44:	02000793          	li	a5,32
80000d48:	00012703          	lw	a4,0(sp)
80000d4c:	01012683          	lw	a3,16(sp)
80000d50:	00030513          	mv	a0,t1
80000d54:	28f38a63          	beq	t2,a5,80000fe8 <__udivmoddi4+0x3d8>
80000d58:	40778633          	sub	a2,a5,t2
80000d5c:	007355b3          	srl	a1,t1,t2
80000d60:	00c71333          	sll	t1,a4,a2
80000d64:	007757b3          	srl	a5,a4,t2
80000d68:	00c51533          	sll	a0,a0,a2
80000d6c:	00b36733          	or	a4,t1,a1
80000d70:	00000413          	li	s0,0
80000d74:	00068613          	mv	a2,a3
80000d78:	00012023          	sw	zero,0(sp)
80000d7c:	00078693          	mv	a3,a5
80000d80:	00060793          	mv	a5,a2
80000d84:	01f55593          	srli	a1,a0,0x1f
80000d88:	00171613          	slli	a2,a4,0x1
80000d8c:	00b66633          	or	a2,a2,a1
80000d90:	01f75713          	srli	a4,a4,0x1f
80000d94:	00169693          	slli	a3,a3,0x1
80000d98:	00e6e6b3          	or	a3,a3,a4
80000d9c:	40c48733          	sub	a4,s1,a2
80000da0:	00e4b333          	sltu	t1,s1,a4
80000da4:	40d785b3          	sub	a1,a5,a3
80000da8:	406585b3          	sub	a1,a1,t1
80000dac:	00173713          	seqz	a4,a4
80000db0:	40e585b3          	sub	a1,a1,a4
80000db4:	41f5d313          	srai	t1,a1,0x1f
80000db8:	00937733          	and	a4,t1,s1
80000dbc:	00f37333          	and	t1,t1,a5
80000dc0:	406686b3          	sub	a3,a3,t1
80000dc4:	00012303          	lw	t1,0(sp)
80000dc8:	40e60733          	sub	a4,a2,a4
80000dcc:	01f5d593          	srli	a1,a1,0x1f
80000dd0:	01f45293          	srli	t0,s0,0x1f
80000dd4:	00151513          	slli	a0,a0,0x1
80000dd8:	00141413          	slli	s0,s0,0x1
80000ddc:	00e63633          	sltu	a2,a2,a4
80000de0:	fff38393          	addi	t2,t2,-1
80000de4:	00b12023          	sw	a1,0(sp)
80000de8:	00646433          	or	s0,s0,t1
80000dec:	00556533          	or	a0,a0,t0
80000df0:	40c686b3          	sub	a3,a3,a2
80000df4:	f80398e3          	bnez	t2,80000d84 <__udivmoddi4+0x174>
80000df8:	01f45593          	srli	a1,s0,0x1f
80000dfc:	00068793          	mv	a5,a3
80000e00:	00151693          	slli	a3,a0,0x1
80000e04:	00012603          	lw	a2,0(sp)
80000e08:	00d5e5b3          	or	a1,a1,a3
80000e0c:	00412683          	lw	a3,4(sp)
80000e10:	00141413          	slli	s0,s0,0x1
80000e14:	00c46533          	or	a0,s0,a2
80000e18:	e40686e3          	beqz	a3,80000c64 <__udivmoddi4+0x54>
80000e1c:	01c12083          	lw	ra,28(sp)
80000e20:	01812403          	lw	s0,24(sp)
80000e24:	00e6a023          	sw	a4,0(a3)
80000e28:	00f6a223          	sw	a5,4(a3)
80000e2c:	01412483          	lw	s1,20(sp)
80000e30:	02010113          	addi	sp,sp,32
80000e34:	00008067          	ret
80000e38:	00412783          	lw	a5,4(sp)
80000e3c:	08078a63          	beqz	a5,80000ed0 <__udivmoddi4+0x2c0>
80000e40:	01c12083          	lw	ra,28(sp)
80000e44:	01812403          	lw	s0,24(sp)
80000e48:	00a7a023          	sw	a0,0(a5)
80000e4c:	0007a223          	sw	zero,4(a5)
80000e50:	01412483          	lw	s1,20(sp)
80000e54:	00000513          	li	a0,0
80000e58:	00000593          	li	a1,0
80000e5c:	02010113          	addi	sp,sp,32
80000e60:	00008067          	ret
80000e64:	fff60613          	addi	a2,a2,-1
80000e68:	009675b3          	and	a1,a2,s1
80000e6c:	06059863          	bnez	a1,80000edc <__udivmoddi4+0x2cc>
80000e70:	00412703          	lw	a4,4(sp)
80000e74:	00070863          	beqz	a4,80000e84 <__udivmoddi4+0x274>
80000e78:	00a67633          	and	a2,a2,a0
80000e7c:	00c72023          	sw	a2,0(a4)
80000e80:	00072223          	sw	zero,4(a4)
80000e84:	00100713          	li	a4,1
80000e88:	12e48263          	beq	s1,a4,80000fac <__udivmoddi4+0x39c>
80000e8c:	00048513          	mv	a0,s1
80000e90:	00f12223          	sw	a5,4(sp)
80000e94:	00612023          	sw	t1,0(sp)
80000e98:	254000ef          	jal	ra,800010ec <__ctzsi2>
80000e9c:	00412783          	lw	a5,4(sp)
80000ea0:	00012303          	lw	t1,0(sp)
80000ea4:	02000413          	li	s0,32
80000ea8:	40a40433          	sub	s0,s0,a0
80000eac:	00050713          	mv	a4,a0
80000eb0:	00879433          	sll	s0,a5,s0
80000eb4:	00a35533          	srl	a0,t1,a0
80000eb8:	00a46533          	or	a0,s0,a0
80000ebc:	00e7d5b3          	srl	a1,a5,a4
80000ec0:	da5ff06f          	j	80000c64 <__udivmoddi4+0x54>
80000ec4:	00100073          	ebreak
80000ec8:	00412703          	lw	a4,4(sp)
80000ecc:	0c071663          	bnez	a4,80000f98 <__udivmoddi4+0x388>
80000ed0:	00000513          	li	a0,0
80000ed4:	00000593          	li	a1,0
80000ed8:	d8dff06f          	j	80000c64 <__udivmoddi4+0x54>
80000edc:	00a12623          	sw	a0,12(sp)
80000ee0:	00048513          	mv	a0,s1
80000ee4:	00068413          	mv	s0,a3
80000ee8:	00d12823          	sw	a3,16(sp)
80000eec:	00f12023          	sw	a5,0(sp)
80000ef0:	164000ef          	jal	ra,80001054 <__clzsi2>
80000ef4:	00012703          	lw	a4,0(sp)
80000ef8:	00050613          	mv	a2,a0
80000efc:	00c12023          	sw	a2,0(sp)
80000f00:	00070513          	mv	a0,a4
80000f04:	00e12423          	sw	a4,8(sp)
80000f08:	14c000ef          	jal	ra,80001054 <__clzsi2>
80000f0c:	00012603          	lw	a2,0(sp)
80000f10:	00c12303          	lw	t1,12(sp)
80000f14:	02000593          	li	a1,32
80000f18:	40a60633          	sub	a2,a2,a0
80000f1c:	02160393          	addi	t2,a2,33
80000f20:	00812703          	lw	a4,8(sp)
80000f24:	01012683          	lw	a3,16(sp)
80000f28:	00030513          	mv	a0,t1
80000f2c:	00000793          	li	a5,0
80000f30:	e4b382e3          	beq	t2,a1,80000d74 <__udivmoddi4+0x164>
80000f34:	01f00313          	li	t1,31
80000f38:	0a736e63          	bltu	t1,t2,80000ff4 <__udivmoddi4+0x3e4>
80000f3c:	407585b3          	sub	a1,a1,t2
80000f40:	00755633          	srl	a2,a0,t2
80000f44:	00b71333          	sll	t1,a4,a1
80000f48:	007757b3          	srl	a5,a4,t2
80000f4c:	00b51533          	sll	a0,a0,a1
80000f50:	00c36733          	or	a4,t1,a2
80000f54:	e21ff06f          	j	80000d74 <__udivmoddi4+0x164>
80000f58:	00412403          	lw	s0,4(sp)
80000f5c:	02040463          	beqz	s0,80000f84 <__udivmoddi4+0x374>
80000f60:	00068593          	mv	a1,a3
80000f64:	00078513          	mv	a0,a5
80000f68:	00d12223          	sw	a3,4(sp)
80000f6c:	00f12023          	sw	a5,0(sp)
80000f70:	240000ef          	jal	ra,800011b0 <__umodsi3>
80000f74:	00412683          	lw	a3,4(sp)
80000f78:	00012783          	lw	a5,0(sp)
80000f7c:	00042023          	sw	zero,0(s0)
80000f80:	00a42223          	sw	a0,4(s0)
80000f84:	00068593          	mv	a1,a3
80000f88:	00078513          	mv	a0,a5
80000f8c:	1dc000ef          	jal	ra,80001168 <__hidden___udivsi3>
80000f90:	00000593          	li	a1,0
80000f94:	cd1ff06f          	j	80000c64 <__udivmoddi4+0x54>
80000f98:	00672023          	sw	t1,0(a4)
80000f9c:	00f72223          	sw	a5,4(a4)
80000fa0:	00000513          	li	a0,0
80000fa4:	00000593          	li	a1,0
80000fa8:	cbdff06f          	j	80000c64 <__udivmoddi4+0x54>
80000fac:	00030513          	mv	a0,t1
80000fb0:	00078593          	mv	a1,a5
80000fb4:	cb1ff06f          	j	80000c64 <__udivmoddi4+0x54>
80000fb8:	00412703          	lw	a4,4(sp)
80000fbc:	00070863          	beqz	a4,80000fcc <__udivmoddi4+0x3bc>
80000fc0:	00f67633          	and	a2,a2,a5
80000fc4:	00a72023          	sw	a0,0(a4)
80000fc8:	00c72223          	sw	a2,4(a4)
80000fcc:	00068513          	mv	a0,a3
80000fd0:	00f12023          	sw	a5,0(sp)
80000fd4:	118000ef          	jal	ra,800010ec <__ctzsi2>
80000fd8:	00012783          	lw	a5,0(sp)
80000fdc:	00000593          	li	a1,0
80000fe0:	00a7d533          	srl	a0,a5,a0
80000fe4:	c81ff06f          	j	80000c64 <__udivmoddi4+0x54>
80000fe8:	00000793          	li	a5,0
80000fec:	00000413          	li	s0,0
80000ff0:	d85ff06f          	j	80000d74 <__udivmoddi4+0x164>
80000ff4:	04000593          	li	a1,64
80000ff8:	407585b3          	sub	a1,a1,t2
80000ffc:	00160613          	addi	a2,a2,1
80001000:	00b51433          	sll	s0,a0,a1
80001004:	00b715b3          	sll	a1,a4,a1
80001008:	00c55533          	srl	a0,a0,a2
8000100c:	00a5e533          	or	a0,a1,a0
80001010:	00c75733          	srl	a4,a4,a2
80001014:	d61ff06f          	j	80000d74 <__udivmoddi4+0x164>

80001018 <__udivdi3>:
80001018:	00000713          	li	a4,0
8000101c:	bf5ff06f          	j	80000c10 <__udivmoddi4>

80001020 <__umoddi3>:
80001020:	fe810113          	addi	sp,sp,-24
80001024:	00812823          	sw	s0,16(sp)
80001028:	00710413          	addi	s0,sp,7
8000102c:	ff847413          	andi	s0,s0,-8
80001030:	00040713          	mv	a4,s0
80001034:	00112a23          	sw	ra,20(sp)
80001038:	bd9ff0ef          	jal	ra,80000c10 <__udivmoddi4>
8000103c:	00042503          	lw	a0,0(s0)
80001040:	00442583          	lw	a1,4(s0)
80001044:	01412083          	lw	ra,20(sp)
80001048:	01012403          	lw	s0,16(sp)
8000104c:	01810113          	addi	sp,sp,24
80001050:	00008067          	ret

80001054 <__clzsi2>:
80001054:	ffff0637          	lui	a2,0xffff0
80001058:	00c57633          	and	a2,a0,a2
8000105c:	00163613          	seqz	a2,a2
80001060:	00461613          	slli	a2,a2,0x4
80001064:	01000793          	li	a5,16
80001068:	40c787b3          	sub	a5,a5,a2
8000106c:	00010737          	lui	a4,0x10
80001070:	00f557b3          	srl	a5,a0,a5
80001074:	f0070713          	addi	a4,a4,-256 # ff00 <_entry_offset+0xff00>
80001078:	00e7f733          	and	a4,a5,a4
8000107c:	00173713          	seqz	a4,a4
80001080:	00371713          	slli	a4,a4,0x3
80001084:	00800693          	li	a3,8
80001088:	40e686b3          	sub	a3,a3,a4
8000108c:	00d7d7b3          	srl	a5,a5,a3
80001090:	0f07f593          	andi	a1,a5,240
80001094:	0015b593          	seqz	a1,a1
80001098:	00259593          	slli	a1,a1,0x2
8000109c:	00400693          	li	a3,4
800010a0:	40b686b3          	sub	a3,a3,a1
800010a4:	00d7d7b3          	srl	a5,a5,a3
800010a8:	00c7f513          	andi	a0,a5,12
800010ac:	00153513          	seqz	a0,a0
800010b0:	00151513          	slli	a0,a0,0x1
800010b4:	00200313          	li	t1,2
800010b8:	40a306b3          	sub	a3,t1,a0
800010bc:	00d7d7b3          	srl	a5,a5,a3
800010c0:	0017d693          	srli	a3,a5,0x1
800010c4:	0016c693          	xori	a3,a3,1
800010c8:	00c70733          	add	a4,a4,a2
800010cc:	0016f693          	andi	a3,a3,1
800010d0:	00e585b3          	add	a1,a1,a4
800010d4:	40f30333          	sub	t1,t1,a5
800010d8:	40d006b3          	neg	a3,a3
800010dc:	0066f6b3          	and	a3,a3,t1
800010e0:	00b50533          	add	a0,a0,a1
800010e4:	00a68533          	add	a0,a3,a0
800010e8:	00008067          	ret

800010ec <__ctzsi2>:
800010ec:	01051593          	slli	a1,a0,0x10
800010f0:	0105d593          	srli	a1,a1,0x10
800010f4:	0015b593          	seqz	a1,a1
800010f8:	00459593          	slli	a1,a1,0x4
800010fc:	00b557b3          	srl	a5,a0,a1
80001100:	0ff7f613          	zext.b	a2,a5
80001104:	00163613          	seqz	a2,a2
80001108:	00361613          	slli	a2,a2,0x3
8000110c:	00c7d7b3          	srl	a5,a5,a2
80001110:	00f7f693          	andi	a3,a5,15
80001114:	0016b693          	seqz	a3,a3
80001118:	00269693          	slli	a3,a3,0x2
8000111c:	00d7d7b3          	srl	a5,a5,a3
80001120:	0037f713          	andi	a4,a5,3
80001124:	00173713          	seqz	a4,a4
80001128:	00171713          	slli	a4,a4,0x1
8000112c:	00e7d7b3          	srl	a5,a5,a4
80001130:	0017d513          	srli	a0,a5,0x1
80001134:	00b60633          	add	a2,a2,a1
80001138:	0017f793          	andi	a5,a5,1
8000113c:	00157593          	andi	a1,a0,1
80001140:	00200513          	li	a0,2
80001144:	40b50533          	sub	a0,a0,a1
80001148:	00c686b3          	add	a3,a3,a2
8000114c:	fff78793          	addi	a5,a5,-1
80001150:	00f577b3          	and	a5,a0,a5
80001154:	00d70533          	add	a0,a4,a3
80001158:	00a78533          	add	a0,a5,a0
8000115c:	00008067          	ret

80001160 <__divsi3>:
80001160:	06054063          	bltz	a0,800011c0 <__umodsi3+0x10>
80001164:	0605c663          	bltz	a1,800011d0 <__umodsi3+0x20>

80001168 <__hidden___udivsi3>:
80001168:	00058613          	mv	a2,a1
8000116c:	00050593          	mv	a1,a0
80001170:	fff00513          	li	a0,-1
80001174:	02060c63          	beqz	a2,800011ac <__hidden___udivsi3+0x44>
80001178:	00100693          	li	a3,1
8000117c:	00b67a63          	bgeu	a2,a1,80001190 <__hidden___udivsi3+0x28>
80001180:	00c05863          	blez	a2,80001190 <__hidden___udivsi3+0x28>
80001184:	00161613          	slli	a2,a2,0x1
80001188:	00169693          	slli	a3,a3,0x1
8000118c:	feb66ae3          	bltu	a2,a1,80001180 <__hidden___udivsi3+0x18>
80001190:	00000513          	li	a0,0
80001194:	00c5e663          	bltu	a1,a2,800011a0 <__hidden___udivsi3+0x38>
80001198:	40c585b3          	sub	a1,a1,a2
8000119c:	00d56533          	or	a0,a0,a3
800011a0:	0016d693          	srli	a3,a3,0x1
800011a4:	00165613          	srli	a2,a2,0x1
800011a8:	fe0696e3          	bnez	a3,80001194 <__hidden___udivsi3+0x2c>
800011ac:	00008067          	ret

800011b0 <__umodsi3>:
800011b0:	00008293          	mv	t0,ra
800011b4:	fb5ff0ef          	jal	ra,80001168 <__hidden___udivsi3>
800011b8:	00058513          	mv	a0,a1
800011bc:	00028067          	jr	t0
800011c0:	40a00533          	neg	a0,a0
800011c4:	00b04863          	bgtz	a1,800011d4 <__umodsi3+0x24>
800011c8:	40b005b3          	neg	a1,a1
800011cc:	f9dff06f          	j	80001168 <__hidden___udivsi3>
800011d0:	40b005b3          	neg	a1,a1
800011d4:	00008293          	mv	t0,ra
800011d8:	f91ff0ef          	jal	ra,80001168 <__hidden___udivsi3>
800011dc:	40a00533          	neg	a0,a0
800011e0:	00028067          	jr	t0

800011e4 <__modsi3>:
800011e4:	00008293          	mv	t0,ra
800011e8:	0005ca63          	bltz	a1,800011fc <__modsi3+0x18>
800011ec:	00054c63          	bltz	a0,80001204 <__modsi3+0x20>
800011f0:	f79ff0ef          	jal	ra,80001168 <__hidden___udivsi3>
800011f4:	00058513          	mv	a0,a1
800011f8:	00028067          	jr	t0
800011fc:	40b005b3          	neg	a1,a1
80001200:	fe0558e3          	bgez	a0,800011f0 <__modsi3+0xc>
80001204:	40a00533          	neg	a0,a0
80001208:	f61ff0ef          	jal	ra,80001168 <__hidden___udivsi3>
8000120c:	40b00533          	neg	a0,a1
80001210:	00028067          	jr	t0
