
/home/crystc/ysyx-workbench/am-kernels/tests/cpu-tests/build/hello-str-riscv32e-npc.elf:     file format elf32-littleriscv


Disassembly of section .text:

80000000 <_start>:
80000000:	00000413          	li	s0,0
80000004:	00009117          	auipc	sp,0x9
80000008:	ffc10113          	addi	sp,sp,-4 # 80009000 <_end>
8000000c:	0e0000ef          	jal	ra,800000ec <_trm_init>

80000010 <check>:
80000010:	00050463          	beqz	a0,80000018 <check+0x8>
80000014:	00008067          	ret
80000018:	ff410113          	addi	sp,sp,-12
8000001c:	00100513          	li	a0,1
80000020:	00112423          	sw	ra,8(sp)
80000024:	0c4000ef          	jal	ra,800000e8 <halt>

80000028 <main>:
80000028:	ff410113          	addi	sp,sp,-12
8000002c:	00812223          	sw	s0,4(sp)
80000030:	00000417          	auipc	s0,0x0
80000034:	46040413          	addi	s0,s0,1120 # 80000490 <buf>
80000038:	00000617          	auipc	a2,0x0
8000003c:	3d860613          	addi	a2,a2,984 # 80000410 <_etext>
80000040:	00000597          	auipc	a1,0x0
80000044:	3e058593          	addi	a1,a1,992 # 80000420 <_etext+0x10>
80000048:	00040513          	mv	a0,s0
8000004c:	00112423          	sw	ra,8(sp)
80000050:	290000ef          	jal	ra,800002e0 <sprintf>
80000054:	00000597          	auipc	a1,0x0
80000058:	3bc58593          	addi	a1,a1,956 # 80000410 <_etext>
8000005c:	00040513          	mv	a0,s0
80000060:	2b4000ef          	jal	ra,80000314 <strcmp>
80000064:	00153513          	seqz	a0,a0
80000068:	fa9ff0ef          	jal	ra,80000010 <check>
8000006c:	00200713          	li	a4,2
80000070:	00100693          	li	a3,1
80000074:	00100613          	li	a2,1
80000078:	00000597          	auipc	a1,0x0
8000007c:	3ac58593          	addi	a1,a1,940 # 80000424 <_etext+0x14>
80000080:	00040513          	mv	a0,s0
80000084:	25c000ef          	jal	ra,800002e0 <sprintf>
80000088:	00000597          	auipc	a1,0x0
8000008c:	3ac58593          	addi	a1,a1,940 # 80000434 <_etext+0x24>
80000090:	00040513          	mv	a0,s0
80000094:	280000ef          	jal	ra,80000314 <strcmp>
80000098:	00153513          	seqz	a0,a0
8000009c:	f75ff0ef          	jal	ra,80000010 <check>
800000a0:	00c00713          	li	a4,12
800000a4:	00a00693          	li	a3,10
800000a8:	00200613          	li	a2,2
800000ac:	00000597          	auipc	a1,0x0
800000b0:	37858593          	addi	a1,a1,888 # 80000424 <_etext+0x14>
800000b4:	00040513          	mv	a0,s0
800000b8:	228000ef          	jal	ra,800002e0 <sprintf>
800000bc:	00000597          	auipc	a1,0x0
800000c0:	38458593          	addi	a1,a1,900 # 80000440 <_etext+0x30>
800000c4:	00040513          	mv	a0,s0
800000c8:	24c000ef          	jal	ra,80000314 <strcmp>
800000cc:	00153513          	seqz	a0,a0
800000d0:	f41ff0ef          	jal	ra,80000010 <check>
800000d4:	00812083          	lw	ra,8(sp)
800000d8:	00412403          	lw	s0,4(sp)
800000dc:	00000513          	li	a0,0
800000e0:	00c10113          	addi	sp,sp,12
800000e4:	00008067          	ret

800000e8 <halt>:
800000e8:	0000006f          	j	800000e8 <halt>

800000ec <_trm_init>:
800000ec:	ff410113          	addi	sp,sp,-12
800000f0:	00000517          	auipc	a0,0x0
800000f4:	36050513          	addi	a0,a0,864 # 80000450 <mainargs>
800000f8:	00112423          	sw	ra,8(sp)
800000fc:	f2dff0ef          	jal	ra,80000028 <main>
80000100:	0000006f          	j	80000100 <_trm_init+0x14>

80000104 <vsprintf>:
80000104:	fb810113          	addi	sp,sp,-72
80000108:	04112223          	sw	ra,68(sp)
8000010c:	04812023          	sw	s0,64(sp)
80000110:	02912e23          	sw	s1,60(sp)
80000114:	0005c703          	lbu	a4,0(a1)
80000118:	00050393          	mv	t2,a0
8000011c:	1a070263          	beqz	a4,800002c0 <vsprintf+0x1bc>
80000120:	00000493          	li	s1,0
80000124:	00050693          	mv	a3,a0
80000128:	0200006f          	j	80000148 <vsprintf+0x44>
8000012c:	00148493          	addi	s1,s1,1
80000130:	00e68023          	sb	a4,0(a3)
80000134:	00058313          	mv	t1,a1
80000138:	009386b3          	add	a3,t2,s1
8000013c:	00134703          	lbu	a4,1(t1)
80000140:	00130593          	addi	a1,t1,1
80000144:	04070a63          	beqz	a4,80000198 <vsprintf+0x94>
80000148:	02500793          	li	a5,37
8000014c:	00048513          	mv	a0,s1
80000150:	00158313          	addi	t1,a1,1
80000154:	fcf71ce3          	bne	a4,a5,8000012c <vsprintf+0x28>
80000158:	0015c703          	lbu	a4,1(a1)
8000015c:	06400793          	li	a5,100
80000160:	04f70c63          	beq	a4,a5,800001b8 <vsprintf+0xb4>
80000164:	07300793          	li	a5,115
80000168:	12f70263          	beq	a4,a5,8000028c <vsprintf+0x188>
8000016c:	02500793          	li	a5,37
80000170:	00f68023          	sb	a5,0(a3)
80000174:	0015c703          	lbu	a4,1(a1)
80000178:	00148793          	addi	a5,s1,1
8000017c:	00f387b3          	add	a5,t2,a5
80000180:	00e78023          	sb	a4,0(a5)
80000184:	00134703          	lbu	a4,1(t1)
80000188:	00248493          	addi	s1,s1,2
8000018c:	009386b3          	add	a3,t2,s1
80000190:	00130593          	addi	a1,t1,1
80000194:	fa071ae3          	bnez	a4,80000148 <vsprintf+0x44>
80000198:	00068393          	mv	t2,a3
8000019c:	00038023          	sb	zero,0(t2)
800001a0:	04412083          	lw	ra,68(sp)
800001a4:	04012403          	lw	s0,64(sp)
800001a8:	00048513          	mv	a0,s1
800001ac:	03c12483          	lw	s1,60(sp)
800001b0:	04810113          	addi	sp,sp,72
800001b4:	00008067          	ret
800001b8:	00062703          	lw	a4,0(a2)
800001bc:	00460793          	addi	a5,a2,4
800001c0:	00f12423          	sw	a5,8(sp)
800001c4:	00075c63          	bgez	a4,800001dc <vsprintf+0xd8>
800001c8:	00148493          	addi	s1,s1,1
800001cc:	02d00793          	li	a5,45
800001d0:	00f68023          	sb	a5,0(a3)
800001d4:	40e00733          	neg	a4,a4
800001d8:	009386b3          	add	a3,t2,s1
800001dc:	00912823          	sw	s1,16(sp)
800001e0:	00000413          	li	s0,0
800001e4:	00612623          	sw	t1,12(sp)
800001e8:	00070493          	mv	s1,a4
800001ec:	00712a23          	sw	t2,20(sp)
800001f0:	00d12c23          	sw	a3,24(sp)
800001f4:	00a00593          	li	a1,10
800001f8:	00048513          	mv	a0,s1
800001fc:	1e4000ef          	jal	ra,800003e0 <__modsi3>
80000200:	00040293          	mv	t0,s0
80000204:	00140413          	addi	s0,s0,1
80000208:	03050793          	addi	a5,a0,48
8000020c:	01c40713          	addi	a4,s0,28
80000210:	0ff7f793          	zext.b	a5,a5
80000214:	00270733          	add	a4,a4,sp
80000218:	00048513          	mv	a0,s1
8000021c:	fef70fa3          	sb	a5,-1(a4)
80000220:	00a00593          	li	a1,10
80000224:	00512223          	sw	t0,4(sp)
80000228:	00f12023          	sw	a5,0(sp)
8000022c:	130000ef          	jal	ra,8000035c <__divsi3>
80000230:	00012783          	lw	a5,0(sp)
80000234:	00412283          	lw	t0,4(sp)
80000238:	00050493          	mv	s1,a0
8000023c:	fa051ce3          	bnez	a0,800001f4 <vsprintf+0xf0>
80000240:	01c28713          	addi	a4,t0,28
80000244:	00c12303          	lw	t1,12(sp)
80000248:	01012483          	lw	s1,16(sp)
8000024c:	01412383          	lw	t2,20(sp)
80000250:	01812683          	lw	a3,24(sp)
80000254:	00270733          	add	a4,a4,sp
80000258:	00c0006f          	j	80000264 <vsprintf+0x160>
8000025c:	fff74783          	lbu	a5,-1(a4)
80000260:	00060713          	mv	a4,a2
80000264:	00f68023          	sb	a5,0(a3)
80000268:	01c10793          	addi	a5,sp,28
8000026c:	fff70613          	addi	a2,a4,-1
80000270:	00168693          	addi	a3,a3,1
80000274:	fee794e3          	bne	a5,a4,8000025c <vsprintf+0x158>
80000278:	00148613          	addi	a2,s1,1
8000027c:	00c284b3          	add	s1,t0,a2
80000280:	009386b3          	add	a3,t2,s1
80000284:	00812603          	lw	a2,8(sp)
80000288:	eb5ff06f          	j	8000013c <vsprintf+0x38>
8000028c:	00062283          	lw	t0,0(a2)
80000290:	00460793          	addi	a5,a2,4
80000294:	0002c583          	lbu	a1,0(t0)
80000298:	02058063          	beqz	a1,800002b8 <vsprintf+0x1b4>
8000029c:	00148493          	addi	s1,s1,1
800002a0:	009386b3          	add	a3,t2,s1
800002a4:	40a48733          	sub	a4,s1,a0
800002a8:	feb68fa3          	sb	a1,-1(a3)
800002ac:	00e28733          	add	a4,t0,a4
800002b0:	00074583          	lbu	a1,0(a4)
800002b4:	fe0594e3          	bnez	a1,8000029c <vsprintf+0x198>
800002b8:	00078613          	mv	a2,a5
800002bc:	e81ff06f          	j	8000013c <vsprintf+0x38>
800002c0:	00038023          	sb	zero,0(t2)
800002c4:	04412083          	lw	ra,68(sp)
800002c8:	04012403          	lw	s0,64(sp)
800002cc:	00000493          	li	s1,0
800002d0:	00048513          	mv	a0,s1
800002d4:	03c12483          	lw	s1,60(sp)
800002d8:	04810113          	addi	sp,sp,72
800002dc:	00008067          	ret

800002e0 <sprintf>:
800002e0:	fe010113          	addi	sp,sp,-32
800002e4:	01010313          	addi	t1,sp,16
800002e8:	00c12823          	sw	a2,16(sp)
800002ec:	00030613          	mv	a2,t1
800002f0:	00112623          	sw	ra,12(sp)
800002f4:	00d12a23          	sw	a3,20(sp)
800002f8:	00e12c23          	sw	a4,24(sp)
800002fc:	00f12e23          	sw	a5,28(sp)
80000300:	00612023          	sw	t1,0(sp)
80000304:	e01ff0ef          	jal	ra,80000104 <vsprintf>
80000308:	00c12083          	lw	ra,12(sp)
8000030c:	02010113          	addi	sp,sp,32
80000310:	00008067          	ret

80000314 <strcmp>:
80000314:	00054683          	lbu	a3,0(a0)
80000318:	00000793          	li	a5,0
8000031c:	00069a63          	bnez	a3,80000330 <strcmp+0x1c>
80000320:	0300006f          	j	80000350 <strcmp+0x3c>
80000324:	02d71063          	bne	a4,a3,80000344 <strcmp+0x30>
80000328:	00064683          	lbu	a3,0(a2)
8000032c:	02068063          	beqz	a3,8000034c <strcmp+0x38>
80000330:	00f58733          	add	a4,a1,a5
80000334:	00074703          	lbu	a4,0(a4)
80000338:	00178793          	addi	a5,a5,1
8000033c:	00f50633          	add	a2,a0,a5
80000340:	fe0712e3          	bnez	a4,80000324 <strcmp+0x10>
80000344:	40e68533          	sub	a0,a3,a4
80000348:	00008067          	ret
8000034c:	00f585b3          	add	a1,a1,a5
80000350:	0005c703          	lbu	a4,0(a1)
80000354:	40e68533          	sub	a0,a3,a4
80000358:	00008067          	ret

8000035c <__divsi3>:
8000035c:	06054063          	bltz	a0,800003bc <__umodsi3+0x10>
80000360:	0605c663          	bltz	a1,800003cc <__umodsi3+0x20>

80000364 <__hidden___udivsi3>:
80000364:	00058613          	mv	a2,a1
80000368:	00050593          	mv	a1,a0
8000036c:	fff00513          	li	a0,-1
80000370:	02060c63          	beqz	a2,800003a8 <__hidden___udivsi3+0x44>
80000374:	00100693          	li	a3,1
80000378:	00b67a63          	bgeu	a2,a1,8000038c <__hidden___udivsi3+0x28>
8000037c:	00c05863          	blez	a2,8000038c <__hidden___udivsi3+0x28>
80000380:	00161613          	slli	a2,a2,0x1
80000384:	00169693          	slli	a3,a3,0x1
80000388:	feb66ae3          	bltu	a2,a1,8000037c <__hidden___udivsi3+0x18>
8000038c:	00000513          	li	a0,0
80000390:	00c5e663          	bltu	a1,a2,8000039c <__hidden___udivsi3+0x38>
80000394:	40c585b3          	sub	a1,a1,a2
80000398:	00d56533          	or	a0,a0,a3
8000039c:	0016d693          	srli	a3,a3,0x1
800003a0:	00165613          	srli	a2,a2,0x1
800003a4:	fe0696e3          	bnez	a3,80000390 <__hidden___udivsi3+0x2c>
800003a8:	00008067          	ret

800003ac <__umodsi3>:
800003ac:	00008293          	mv	t0,ra
800003b0:	fb5ff0ef          	jal	ra,80000364 <__hidden___udivsi3>
800003b4:	00058513          	mv	a0,a1
800003b8:	00028067          	jr	t0
800003bc:	40a00533          	neg	a0,a0
800003c0:	00b04863          	bgtz	a1,800003d0 <__umodsi3+0x24>
800003c4:	40b005b3          	neg	a1,a1
800003c8:	f9dff06f          	j	80000364 <__hidden___udivsi3>
800003cc:	40b005b3          	neg	a1,a1
800003d0:	00008293          	mv	t0,ra
800003d4:	f91ff0ef          	jal	ra,80000364 <__hidden___udivsi3>
800003d8:	40a00533          	neg	a0,a0
800003dc:	00028067          	jr	t0

800003e0 <__modsi3>:
800003e0:	00008293          	mv	t0,ra
800003e4:	0005ca63          	bltz	a1,800003f8 <__modsi3+0x18>
800003e8:	00054c63          	bltz	a0,80000400 <__modsi3+0x20>
800003ec:	f79ff0ef          	jal	ra,80000364 <__hidden___udivsi3>
800003f0:	00058513          	mv	a0,a1
800003f4:	00028067          	jr	t0
800003f8:	40b005b3          	neg	a1,a1
800003fc:	fe0558e3          	bgez	a0,800003ec <__modsi3+0xc>
80000400:	40a00533          	neg	a0,a0
80000404:	f61ff0ef          	jal	ra,80000364 <__hidden___udivsi3>
80000408:	40b00533          	neg	a0,a1
8000040c:	00028067          	jr	t0
