
/home/azureuser/RV32-CPU/tests/build/test_printf-riscv32e-npc.elf:     file format elf32-littleriscv


Disassembly of section .text:

80000000 <_start>:
80000000:	00000413          	li	s0,0
80000004:	0000a117          	auipc	sp,0xa
80000008:	ffc10113          	addi	sp,sp,-4 # 8000a000 <_end>
8000000c:	034000ef          	jal	ra,80000040 <_trm_init>

80000010 <main>:
80000010:	ff410113          	addi	sp,sp,-12
80000014:	00001517          	auipc	a0,0x1
80000018:	14050513          	addi	a0,a0,320 # 80001154 <_etext>
8000001c:	00112423          	sw	ra,8(sp)
80000020:	295000ef          	jal	ra,80000ab4 <printf>
80000024:	00812083          	lw	ra,8(sp)
80000028:	00000513          	li	a0,0
8000002c:	00c10113          	addi	sp,sp,12
80000030:	00008067          	ret

80000034 <putch>:
80000034:	a00007b7          	lui	a5,0xa0000
80000038:	3ea78c23          	sb	a0,1016(a5) # a00003f8 <_end+0x1fff63f8>
8000003c:	00008067          	ret

80000040 <_trm_init>:
80000040:	ff410113          	addi	sp,sp,-12
80000044:	00001517          	auipc	a0,0x1
80000048:	12050513          	addi	a0,a0,288 # 80001164 <mainargs>
8000004c:	00112423          	sw	ra,8(sp)
80000050:	fc1ff0ef          	jal	ra,80000010 <main>
80000054:	00050513          	mv	a0,a0
80000058:	00100073          	ebreak
8000005c:	0000006f          	j	8000005c <_trm_init+0x1c>

80000060 <vsnprintf>:
80000060:	f8810113          	addi	sp,sp,-120
80000064:	06912623          	sw	s1,108(sp)
80000068:	06112a23          	sw	ra,116(sp)
8000006c:	06812823          	sw	s0,112(sp)
80000070:	00064783          	lbu	a5,0(a2)
80000074:	00b12e23          	sw	a1,28(sp)
80000078:	00d12223          	sw	a3,4(sp)
8000007c:	00050493          	mv	s1,a0
80000080:	140784e3          	beqz	a5,800009c8 <vsnprintf+0x968>
80000084:	00060313          	mv	t1,a2
80000088:	00000393          	li	t2,0
8000008c:	00058493          	mv	s1,a1
80000090:	00050293          	mv	t0,a0
80000094:	0240006f          	j	800000b8 <vsnprintf+0x58>
80000098:	00048863          	beqz	s1,800000a8 <vsnprintf+0x48>
8000009c:	00f28023          	sb	a5,0(t0)
800000a0:	fff48493          	addi	s1,s1,-1
800000a4:	00128293          	addi	t0,t0,1
800000a8:	00138393          	addi	t2,t2,1
800000ac:	00040313          	mv	t1,s0
800000b0:	00034783          	lbu	a5,0(t1)
800000b4:	2c078e63          	beqz	a5,80000390 <vsnprintf+0x330>
800000b8:	02500713          	li	a4,37
800000bc:	00130413          	addi	s0,t1,1
800000c0:	fce79ce3          	bne	a5,a4,80000098 <vsnprintf+0x38>
800000c4:	01800613          	li	a2,24
800000c8:	00000593          	li	a1,0
800000cc:	03410513          	addi	a0,sp,52
800000d0:	00612623          	sw	t1,12(sp)
800000d4:	00512423          	sw	t0,8(sp)
800000d8:	00712023          	sw	t2,0(sp)
800000dc:	255000ef          	jal	ra,80000b30 <memset>
800000e0:	00c12303          	lw	t1,12(sp)
800000e4:	fff00793          	li	a5,-1
800000e8:	02f12e23          	sw	a5,60(sp)
800000ec:	00134703          	lbu	a4,1(t1)
800000f0:	04f12023          	sw	a5,64(sp)
800000f4:	00012383          	lw	t2,0(sp)
800000f8:	00812283          	lw	t0,8(sp)
800000fc:	16070863          	beqz	a4,8000026c <vsnprintf+0x20c>
80000100:	00000593          	li	a1,0
80000104:	00000513          	li	a0,0
80000108:	00000313          	li	t1,0
8000010c:	00012023          	sw	zero,0(sp)
80000110:	00012423          	sw	zero,8(sp)
80000114:	01000613          	li	a2,16
80000118:	00001697          	auipc	a3,0x1
8000011c:	0bc68693          	addi	a3,a3,188 # 800011d4 <mainargs+0x70>
80000120:	fe070793          	addi	a5,a4,-32
80000124:	0ff7f793          	zext.b	a5,a5
80000128:	00f66c63          	bltu	a2,a5,80000140 <vsnprintf+0xe0>
8000012c:	00279793          	slli	a5,a5,0x2
80000130:	00d787b3          	add	a5,a5,a3
80000134:	0007a783          	lw	a5,0(a5)
80000138:	00d787b3          	add	a5,a5,a3
8000013c:	00078067          	jr	a5
80000140:	00058663          	beqz	a1,8000014c <vsnprintf+0xec>
80000144:	00100793          	li	a5,1
80000148:	02f10c23          	sb	a5,56(sp)
8000014c:	00050663          	beqz	a0,80000158 <vsnprintf+0xf8>
80000150:	00100793          	li	a5,1
80000154:	02f10ba3          	sb	a5,55(sp)
80000158:	00030663          	beqz	t1,80000164 <vsnprintf+0x104>
8000015c:	00100793          	li	a5,1
80000160:	02f10b23          	sb	a5,54(sp)
80000164:	00012783          	lw	a5,0(sp)
80000168:	00078663          	beqz	a5,80000174 <vsnprintf+0x114>
8000016c:	00100793          	li	a5,1
80000170:	02f10aa3          	sb	a5,53(sp)
80000174:	00812783          	lw	a5,8(sp)
80000178:	00078663          	beqz	a5,80000184 <vsnprintf+0x124>
8000017c:	00100793          	li	a5,1
80000180:	02f10a23          	sb	a5,52(sp)
80000184:	02a00793          	li	a5,42
80000188:	44f70863          	beq	a4,a5,800005d8 <vsnprintf+0x578>
8000018c:	fd070713          	addi	a4,a4,-48
80000190:	0ff77713          	zext.b	a4,a4
80000194:	00900793          	li	a5,9
80000198:	00044683          	lbu	a3,0(s0)
8000019c:	5ce7e063          	bltu	a5,a4,8000075c <vsnprintf+0x6fc>
800001a0:	fd068713          	addi	a4,a3,-48
800001a4:	02012e23          	sw	zero,60(sp)
800001a8:	0ff77613          	zext.b	a2,a4
800001ac:	5ac7e863          	bltu	a5,a2,8000075c <vsnprintf+0x6fc>
800001b0:	00000793          	li	a5,0
800001b4:	00900613          	li	a2,9
800001b8:	00078593          	mv	a1,a5
800001bc:	00144683          	lbu	a3,1(s0)
800001c0:	00259793          	slli	a5,a1,0x2
800001c4:	00b787b3          	add	a5,a5,a1
800001c8:	00179793          	slli	a5,a5,0x1
800001cc:	00e785b3          	add	a1,a5,a4
800001d0:	fd068713          	addi	a4,a3,-48
800001d4:	0ff77793          	zext.b	a5,a4
800001d8:	00140413          	addi	s0,s0,1
800001dc:	fef670e3          	bgeu	a2,a5,800001bc <vsnprintf+0x15c>
800001e0:	02b12e23          	sw	a1,60(sp)
800001e4:	00040313          	mv	t1,s0
800001e8:	02e00793          	li	a5,46
800001ec:	40f68863          	beq	a3,a5,800005fc <vsnprintf+0x59c>
800001f0:	06800793          	li	a5,104
800001f4:	46f68463          	beq	a3,a5,8000065c <vsnprintf+0x5fc>
800001f8:	06c00793          	li	a5,108
800001fc:	06f69c63          	bne	a3,a5,80000274 <vsnprintf+0x214>
80000200:	00134683          	lbu	a3,1(t1)
80000204:	56f68a63          	beq	a3,a5,80000778 <vsnprintf+0x718>
80000208:	00300793          	li	a5,3
8000020c:	04f12223          	sw	a5,68(sp)
80000210:	00130313          	addi	t1,t1,1
80000214:	0680006f          	j	8000027c <vsnprintf+0x21c>
80000218:	00100593          	li	a1,1
8000021c:	00144703          	lbu	a4,1(s0)
80000220:	00140413          	addi	s0,s0,1
80000224:	ee071ee3          	bnez	a4,80000120 <vsnprintf+0xc0>
80000228:	00058663          	beqz	a1,80000234 <vsnprintf+0x1d4>
8000022c:	00100793          	li	a5,1
80000230:	02f10c23          	sb	a5,56(sp)
80000234:	00050663          	beqz	a0,80000240 <vsnprintf+0x1e0>
80000238:	00100793          	li	a5,1
8000023c:	02f10ba3          	sb	a5,55(sp)
80000240:	00030663          	beqz	t1,8000024c <vsnprintf+0x1ec>
80000244:	00100793          	li	a5,1
80000248:	02f10b23          	sb	a5,54(sp)
8000024c:	00012783          	lw	a5,0(sp)
80000250:	00078663          	beqz	a5,8000025c <vsnprintf+0x1fc>
80000254:	00100793          	li	a5,1
80000258:	02f10aa3          	sb	a5,53(sp)
8000025c:	00812783          	lw	a5,8(sp)
80000260:	00078663          	beqz	a5,8000026c <vsnprintf+0x20c>
80000264:	00100793          	li	a5,1
80000268:	02f10a23          	sb	a5,52(sp)
8000026c:	00040313          	mv	t1,s0
80000270:	00000693          	li	a3,0
80000274:	04c00793          	li	a5,76
80000278:	34f68663          	beq	a3,a5,800005c4 <vsnprintf+0x564>
8000027c:	04d10423          	sb	a3,72(sp)
80000280:	07800793          	li	a5,120
80000284:	00130313          	addi	t1,t1,1
80000288:	e2d7e4e3          	bltu	a5,a3,800000b0 <vsnprintf+0x50>
8000028c:	06200793          	li	a5,98
80000290:	14d7f863          	bgeu	a5,a3,800003e0 <vsnprintf+0x380>
80000294:	f9d68793          	addi	a5,a3,-99
80000298:	00100613          	li	a2,1
8000029c:	00241737          	lui	a4,0x241
800002a0:	00f617b3          	sll	a5,a2,a5
800002a4:	04270713          	addi	a4,a4,66 # 241042 <_entry_offset+0x241042>
800002a8:	00e7f733          	and	a4,a5,a4
800002ac:	3e071863          	bnez	a4,8000069c <vsnprintf+0x63c>
800002b0:	0017f793          	andi	a5,a5,1
800002b4:	3c079063          	bnez	a5,80000674 <vsnprintf+0x614>
800002b8:	07300793          	li	a5,115
800002bc:	def69ae3          	bne	a3,a5,800000b0 <vsnprintf+0x50>
800002c0:	00412783          	lw	a5,4(sp)
800002c4:	0007a703          	lw	a4,0(a5)
800002c8:	00478413          	addi	s0,a5,4
800002cc:	6c070c63          	beqz	a4,800009a4 <vsnprintf+0x944>
800002d0:	04012603          	lw	a2,64(sp)
800002d4:	5a064263          	bltz	a2,80000878 <vsnprintf+0x818>
800002d8:	74060e63          	beqz	a2,80000a34 <vsnprintf+0x9d4>
800002dc:	00000793          	li	a5,0
800002e0:	0100006f          	j	800002f0 <vsnprintf+0x290>
800002e4:	00178513          	addi	a0,a5,1
800002e8:	4ac55263          	bge	a0,a2,8000078c <vsnprintf+0x72c>
800002ec:	00050793          	mv	a5,a0
800002f0:	00f706b3          	add	a3,a4,a5
800002f4:	0006c683          	lbu	a3,0(a3)
800002f8:	fe0696e3          	bnez	a3,800002e4 <vsnprintf+0x284>
800002fc:	03c12503          	lw	a0,60(sp)
80000300:	03414603          	lbu	a2,52(sp)
80000304:	fff78693          	addi	a3,a5,-1
80000308:	00000593          	li	a1,0
8000030c:	4ca7ce63          	blt	a5,a0,800007e8 <vsnprintf+0x788>
80000310:	04078063          	beqz	a5,80000350 <vsnprintf+0x2f0>
80000314:	00038793          	mv	a5,t2
80000318:	00168693          	addi	a3,a3,1
8000031c:	007686b3          	add	a3,a3,t2
80000320:	0200006f          	j	80000340 <vsnprintf+0x2e0>
80000324:	00048863          	beqz	s1,80000334 <vsnprintf+0x2d4>
80000328:	00a28023          	sb	a0,0(t0)
8000032c:	fff48493          	addi	s1,s1,-1
80000330:	00128293          	addi	t0,t0,1
80000334:	00138393          	addi	t2,t2,1
80000338:	40768533          	sub	a0,a3,t2
8000033c:	00a05a63          	blez	a0,80000350 <vsnprintf+0x2f0>
80000340:	40f38533          	sub	a0,t2,a5
80000344:	00a70533          	add	a0,a4,a0
80000348:	00054503          	lbu	a0,0(a0)
8000034c:	fc051ce3          	bnez	a0,80000324 <vsnprintf+0x2c4>
80000350:	00812223          	sw	s0,4(sp)
80000354:	d4060ee3          	beqz	a2,800000b0 <vsnprintf+0x50>
80000358:	fff58793          	addi	a5,a1,-1
8000035c:	d4b05ae3          	blez	a1,800000b0 <vsnprintf+0x50>
80000360:	02000693          	li	a3,32
80000364:	fff00713          	li	a4,-1
80000368:	4a048463          	beqz	s1,80000810 <vsnprintf+0x7b0>
8000036c:	00d28023          	sb	a3,0(t0)
80000370:	fff48493          	addi	s1,s1,-1
80000374:	00128293          	addi	t0,t0,1
80000378:	fff78793          	addi	a5,a5,-1
8000037c:	fee796e3          	bne	a5,a4,80000368 <vsnprintf+0x308>
80000380:	00034783          	lbu	a5,0(t1)
80000384:	00812223          	sw	s0,4(sp)
80000388:	00b383b3          	add	t2,t2,a1
8000038c:	d20796e3          	bnez	a5,800000b8 <vsnprintf+0x58>
80000390:	00028493          	mv	s1,t0
80000394:	00038513          	mv	a0,t2
80000398:	01c12783          	lw	a5,28(sp)
8000039c:	00078463          	beqz	a5,800003a4 <vsnprintf+0x344>
800003a0:	00048023          	sb	zero,0(s1)
800003a4:	07412083          	lw	ra,116(sp)
800003a8:	07012403          	lw	s0,112(sp)
800003ac:	06c12483          	lw	s1,108(sp)
800003b0:	07810113          	addi	sp,sp,120
800003b4:	00008067          	ret
800003b8:	00100513          	li	a0,1
800003bc:	e61ff06f          	j	8000021c <vsnprintf+0x1bc>
800003c0:	00100313          	li	t1,1
800003c4:	e59ff06f          	j	8000021c <vsnprintf+0x1bc>
800003c8:	00100793          	li	a5,1
800003cc:	00f12023          	sw	a5,0(sp)
800003d0:	e4dff06f          	j	8000021c <vsnprintf+0x1bc>
800003d4:	00100793          	li	a5,1
800003d8:	00f12423          	sw	a5,8(sp)
800003dc:	e41ff06f          	j	8000021c <vsnprintf+0x1bc>
800003e0:	02500793          	li	a5,37
800003e4:	00f69e63          	bne	a3,a5,80000400 <vsnprintf+0x3a0>
800003e8:	00048863          	beqz	s1,800003f8 <vsnprintf+0x398>
800003ec:	00d28023          	sb	a3,0(t0)
800003f0:	fff48493          	addi	s1,s1,-1
800003f4:	00128293          	addi	t0,t0,1
800003f8:	00138393          	addi	t2,t2,1
800003fc:	cb5ff06f          	j	800000b0 <vsnprintf+0x50>
80000400:	05800793          	li	a5,88
80000404:	caf696e3          	bne	a3,a5,800000b0 <vsnprintf+0x50>
80000408:	04412783          	lw	a5,68(sp)
8000040c:	00300713          	li	a4,3
80000410:	60e78663          	beq	a5,a4,80000a1c <vsnprintf+0x9bc>
80000414:	48f76863          	bltu	a4,a5,800008a4 <vsnprintf+0x844>
80000418:	00100713          	li	a4,1
8000041c:	66e78263          	beq	a5,a4,80000a80 <vsnprintf+0xa20>
80000420:	00200713          	li	a4,2
80000424:	5ee79c63          	bne	a5,a4,80000a1c <vsnprintf+0x9bc>
80000428:	00412703          	lw	a4,4(sp)
8000042c:	00000793          	li	a5,0
80000430:	00075403          	lhu	s0,0(a4)
80000434:	00470713          	addi	a4,a4,4
80000438:	00e12223          	sw	a4,4(sp)
8000043c:	05800613          	li	a2,88
80000440:	02012023          	sw	zero,32(sp)
80000444:	2cc69c63          	bne	a3,a2,8000071c <vsnprintf+0x6bc>
80000448:	00001717          	auipc	a4,0x1
8000044c:	d7070713          	addi	a4,a4,-656 # 800011b8 <mainargs+0x54>
80000450:	00a00613          	li	a2,10
80000454:	00012823          	sw	zero,16(sp)
80000458:	00e12623          	sw	a4,12(sp)
8000045c:	02912423          	sw	s1,40(sp)
80000460:	00012023          	sw	zero,0(sp)
80000464:	02712223          	sw	t2,36(sp)
80000468:	02512623          	sw	t0,44(sp)
8000046c:	02612823          	sw	t1,48(sp)
80000470:	00078493          	mv	s1,a5
80000474:	00000693          	li	a3,0
80000478:	00040513          	mv	a0,s0
8000047c:	00048593          	mv	a1,s1
80000480:	00c12423          	sw	a2,8(sp)
80000484:	2dd000ef          	jal	ra,80000f60 <__umoddi3>
80000488:	00c12783          	lw	a5,12(sp)
8000048c:	00012703          	lw	a4,0(sp)
80000490:	00812603          	lw	a2,8(sp)
80000494:	00a78533          	add	a0,a5,a0
80000498:	00054783          	lbu	a5,0(a0)
8000049c:	00170713          	addi	a4,a4,1
800004a0:	04c10693          	addi	a3,sp,76
800004a4:	00e12023          	sw	a4,0(sp)
800004a8:	00e68733          	add	a4,a3,a4
800004ac:	00040513          	mv	a0,s0
800004b0:	00048593          	mv	a1,s1
800004b4:	00000693          	li	a3,0
800004b8:	fef70fa3          	sb	a5,-1(a4)
800004bc:	00f12c23          	sw	a5,24(sp)
800004c0:	00e12a23          	sw	a4,20(sp)
800004c4:	295000ef          	jal	ra,80000f58 <__udivdi3>
800004c8:	01012783          	lw	a5,16(sp)
800004cc:	00048693          	mv	a3,s1
800004d0:	00040313          	mv	t1,s0
800004d4:	00812603          	lw	a2,8(sp)
800004d8:	00058493          	mv	s1,a1
800004dc:	00050413          	mv	s0,a0
800004e0:	f8d79ae3          	bne	a5,a3,80000474 <vsnprintf+0x414>
800004e4:	f8c378e3          	bgeu	t1,a2,80000474 <vsnprintf+0x414>
800004e8:	04012783          	lw	a5,64(sp)
800004ec:	00012703          	lw	a4,0(sp)
800004f0:	02412383          	lw	t2,36(sp)
800004f4:	02812483          	lw	s1,40(sp)
800004f8:	02c12283          	lw	t0,44(sp)
800004fc:	03012303          	lw	t1,48(sp)
80000500:	48f75c63          	bge	a4,a5,80000998 <vsnprintf+0x938>
80000504:	40e785b3          	sub	a1,a5,a4
80000508:	fff58513          	addi	a0,a1,-1
8000050c:	02012783          	lw	a5,32(sp)
80000510:	40079063          	bnez	a5,80000910 <vsnprintf+0x8b0>
80000514:	03514783          	lbu	a5,53(sp)
80000518:	4e079063          	bnez	a5,800009f8 <vsnprintf+0x998>
8000051c:	03614783          	lbu	a5,54(sp)
80000520:	00579793          	slli	a5,a5,0x5
80000524:	0ff7f413          	zext.b	s0,a5
80000528:	008037b3          	snez	a5,s0
8000052c:	00012683          	lw	a3,0(sp)
80000530:	03c12703          	lw	a4,60(sp)
80000534:	00f587b3          	add	a5,a1,a5
80000538:	00d787b3          	add	a5,a5,a3
8000053c:	38e7c463          	blt	a5,a4,800008c4 <vsnprintf+0x864>
80000540:	03814783          	lbu	a5,56(sp)
80000544:	00012423          	sw	zero,8(sp)
80000548:	03414683          	lbu	a3,52(sp)
8000054c:	3c079863          	bnez	a5,8000091c <vsnprintf+0x8bc>
80000550:	40069863          	bnez	a3,80000960 <vsnprintf+0x900>
80000554:	00000613          	li	a2,0
80000558:	50041263          	bnez	s0,80000a5c <vsnprintf+0x9fc>
8000055c:	00050793          	mv	a5,a0
80000560:	03000693          	li	a3,48
80000564:	02058a63          	beqz	a1,80000598 <vsnprintf+0x538>
80000568:	28048e63          	beqz	s1,80000804 <vsnprintf+0x7a4>
8000056c:	00d28023          	sb	a3,0(t0)
80000570:	fff48493          	addi	s1,s1,-1
80000574:	00078713          	mv	a4,a5
80000578:	00128293          	addi	t0,t0,1
8000057c:	fff70793          	addi	a5,a4,-1
80000580:	fee044e3          	bgtz	a4,80000568 <vsnprintf+0x508>
80000584:	fff54793          	not	a5,a0
80000588:	41f7d793          	srai	a5,a5,0x1f
8000058c:	00f577b3          	and	a5,a0,a5
80000590:	00178793          	addi	a5,a5,1
80000594:	00f383b3          	add	t2,t2,a5
80000598:	01412783          	lw	a5,20(sp)
8000059c:	01812703          	lw	a4,24(sp)
800005a0:	00048863          	beqz	s1,800005b0 <vsnprintf+0x550>
800005a4:	00e28023          	sb	a4,0(t0)
800005a8:	fff48493          	addi	s1,s1,-1
800005ac:	00128293          	addi	t0,t0,1
800005b0:	fff78793          	addi	a5,a5,-1
800005b4:	04c10713          	addi	a4,sp,76
800005b8:	26f70863          	beq	a4,a5,80000828 <vsnprintf+0x7c8>
800005bc:	fff7c703          	lbu	a4,-1(a5)
800005c0:	fe1ff06f          	j	800005a0 <vsnprintf+0x540>
800005c4:	00500793          	li	a5,5
800005c8:	00134683          	lbu	a3,1(t1)
800005cc:	04f12223          	sw	a5,68(sp)
800005d0:	00130313          	addi	t1,t1,1
800005d4:	ca9ff06f          	j	8000027c <vsnprintf+0x21c>
800005d8:	00412703          	lw	a4,4(sp)
800005dc:	00144683          	lbu	a3,1(s0)
800005e0:	00140313          	addi	t1,s0,1
800005e4:	00072783          	lw	a5,0(a4)
800005e8:	02f12e23          	sw	a5,60(sp)
800005ec:	00470793          	addi	a5,a4,4
800005f0:	00f12223          	sw	a5,4(sp)
800005f4:	02e00793          	li	a5,46
800005f8:	bef69ce3          	bne	a3,a5,800001f0 <vsnprintf+0x190>
800005fc:	00134683          	lbu	a3,1(t1)
80000600:	02a00793          	li	a5,42
80000604:	12f68c63          	beq	a3,a5,8000073c <vsnprintf+0x6dc>
80000608:	fd068713          	addi	a4,a3,-48
8000060c:	04012023          	sw	zero,64(sp)
80000610:	0ff77613          	zext.b	a2,a4
80000614:	00900793          	li	a5,9
80000618:	00130313          	addi	t1,t1,1
8000061c:	bcc7eae3          	bltu	a5,a2,800001f0 <vsnprintf+0x190>
80000620:	00000793          	li	a5,0
80000624:	00900613          	li	a2,9
80000628:	00078593          	mv	a1,a5
8000062c:	00134683          	lbu	a3,1(t1)
80000630:	00259793          	slli	a5,a1,0x2
80000634:	00b787b3          	add	a5,a5,a1
80000638:	00179793          	slli	a5,a5,0x1
8000063c:	00e785b3          	add	a1,a5,a4
80000640:	fd068713          	addi	a4,a3,-48
80000644:	0ff77793          	zext.b	a5,a4
80000648:	00130313          	addi	t1,t1,1
8000064c:	fef670e3          	bgeu	a2,a5,8000062c <vsnprintf+0x5cc>
80000650:	04b12023          	sw	a1,64(sp)
80000654:	06800793          	li	a5,104
80000658:	baf690e3          	bne	a3,a5,800001f8 <vsnprintf+0x198>
8000065c:	00134683          	lbu	a3,1(t1)
80000660:	10f68263          	beq	a3,a5,80000764 <vsnprintf+0x704>
80000664:	00200793          	li	a5,2
80000668:	04f12223          	sw	a5,68(sp)
8000066c:	00130313          	addi	t1,t1,1
80000670:	c0dff06f          	j	8000027c <vsnprintf+0x21c>
80000674:	00412703          	lw	a4,4(sp)
80000678:	00470793          	addi	a5,a4,4
8000067c:	00048a63          	beqz	s1,80000690 <vsnprintf+0x630>
80000680:	00072703          	lw	a4,0(a4)
80000684:	00128293          	addi	t0,t0,1
80000688:	fff48493          	addi	s1,s1,-1
8000068c:	fee28fa3          	sb	a4,-1(t0)
80000690:	00138393          	addi	t2,t2,1
80000694:	00f12223          	sw	a5,4(sp)
80000698:	a19ff06f          	j	800000b0 <vsnprintf+0x50>
8000069c:	f9c68793          	addi	a5,a3,-100
800006a0:	0ff7f793          	zext.b	a5,a5
800006a4:	01400713          	li	a4,20
800006a8:	a0f764e3          	bltu	a4,a5,800000b0 <vsnprintf+0x50>
800006ac:	00121737          	lui	a4,0x121
800006b0:	00f617b3          	sll	a5,a2,a5
800006b4:	80070713          	addi	a4,a4,-2048 # 120800 <_entry_offset+0x120800>
800006b8:	00e7f733          	and	a4,a5,a4
800006bc:	d40716e3          	bnez	a4,80000408 <vsnprintf+0x3a8>
800006c0:	0217f793          	andi	a5,a5,33
800006c4:	9e0786e3          	beqz	a5,800000b0 <vsnprintf+0x50>
800006c8:	04412783          	lw	a5,68(sp)
800006cc:	00300713          	li	a4,3
800006d0:	32e78a63          	beq	a5,a4,80000a04 <vsnprintf+0x9a4>
800006d4:	1af76863          	bltu	a4,a5,80000884 <vsnprintf+0x824>
800006d8:	38c78863          	beq	a5,a2,80000a68 <vsnprintf+0xa08>
800006dc:	00200713          	li	a4,2
800006e0:	32e79263          	bne	a5,a4,80000a04 <vsnprintf+0x9a4>
800006e4:	00412783          	lw	a5,4(sp)
800006e8:	00079703          	lh	a4,0(a5)
800006ec:	00478793          	addi	a5,a5,4
800006f0:	00f12223          	sw	a5,4(sp)
800006f4:	41f75793          	srai	a5,a4,0x1f
800006f8:	02012023          	sw	zero,32(sp)
800006fc:	00070413          	mv	s0,a4
80000700:	0007de63          	bgez	a5,8000071c <vsnprintf+0x6bc>
80000704:	00e03633          	snez	a2,a4
80000708:	40f007b3          	neg	a5,a5
8000070c:	40e00433          	neg	s0,a4
80000710:	00100713          	li	a4,1
80000714:	40c787b3          	sub	a5,a5,a2
80000718:	02e12023          	sw	a4,32(sp)
8000071c:	06f00613          	li	a2,111
80000720:	26c69063          	bne	a3,a2,80000980 <vsnprintf+0x920>
80000724:	00001717          	auipc	a4,0x1
80000728:	a8070713          	addi	a4,a4,-1408 # 800011a4 <mainargs+0x40>
8000072c:	00800613          	li	a2,8
80000730:	00012823          	sw	zero,16(sp)
80000734:	00e12623          	sw	a4,12(sp)
80000738:	d25ff06f          	j	8000045c <vsnprintf+0x3fc>
8000073c:	00412703          	lw	a4,4(sp)
80000740:	00234683          	lbu	a3,2(t1)
80000744:	00230313          	addi	t1,t1,2
80000748:	00072783          	lw	a5,0(a4)
8000074c:	00470713          	addi	a4,a4,4
80000750:	00e12223          	sw	a4,4(sp)
80000754:	04f12023          	sw	a5,64(sp)
80000758:	a99ff06f          	j	800001f0 <vsnprintf+0x190>
8000075c:	00040313          	mv	t1,s0
80000760:	a89ff06f          	j	800001e8 <vsnprintf+0x188>
80000764:	00100793          	li	a5,1
80000768:	00234683          	lbu	a3,2(t1)
8000076c:	04f12223          	sw	a5,68(sp)
80000770:	00230313          	addi	t1,t1,2
80000774:	b09ff06f          	j	8000027c <vsnprintf+0x21c>
80000778:	00400793          	li	a5,4
8000077c:	00234683          	lbu	a3,2(t1)
80000780:	04f12223          	sw	a5,68(sp)
80000784:	00230313          	addi	t1,t1,2
80000788:	af5ff06f          	j	8000027c <vsnprintf+0x21c>
8000078c:	03c12583          	lw	a1,60(sp)
80000790:	03414603          	lbu	a2,52(sp)
80000794:	06b55063          	bge	a0,a1,800007f4 <vsnprintf+0x794>
80000798:	00078693          	mv	a3,a5
8000079c:	40a585b3          	sub	a1,a1,a0
800007a0:	00038793          	mv	a5,t2
800007a4:	b6061ae3          	bnez	a2,80000318 <vsnprintf+0x2b8>
800007a8:	00050793          	mv	a5,a0
800007ac:	fff58613          	addi	a2,a1,-1
800007b0:	2eb05e63          	blez	a1,80000aac <vsnprintf+0xa4c>
800007b4:	fff00513          	li	a0,-1
800007b8:	00f12023          	sw	a5,0(sp)
800007bc:	06048063          	beqz	s1,8000081c <vsnprintf+0x7bc>
800007c0:	02000793          	li	a5,32
800007c4:	00f28023          	sb	a5,0(t0)
800007c8:	fff48493          	addi	s1,s1,-1
800007cc:	00128293          	addi	t0,t0,1
800007d0:	fff60613          	addi	a2,a2,-1
800007d4:	fea614e3          	bne	a2,a0,800007bc <vsnprintf+0x75c>
800007d8:	00012783          	lw	a5,0(sp)
800007dc:	00b383b3          	add	t2,t2,a1
800007e0:	00000613          	li	a2,0
800007e4:	b2dff06f          	j	80000310 <vsnprintf+0x2b0>
800007e8:	40f505b3          	sub	a1,a0,a5
800007ec:	b20612e3          	bnez	a2,80000310 <vsnprintf+0x2b0>
800007f0:	fbdff06f          	j	800007ac <vsnprintf+0x74c>
800007f4:	00078693          	mv	a3,a5
800007f8:	00000593          	li	a1,0
800007fc:	00038793          	mv	a5,t2
80000800:	b19ff06f          	j	80000318 <vsnprintf+0x2b8>
80000804:	fff78713          	addi	a4,a5,-1
80000808:	d6f04ae3          	bgtz	a5,8000057c <vsnprintf+0x51c>
8000080c:	d79ff06f          	j	80000584 <vsnprintf+0x524>
80000810:	fff78793          	addi	a5,a5,-1
80000814:	b6e792e3          	bne	a5,a4,80000378 <vsnprintf+0x318>
80000818:	b69ff06f          	j	80000380 <vsnprintf+0x320>
8000081c:	fff60613          	addi	a2,a2,-1
80000820:	faa618e3          	bne	a2,a0,800007d0 <vsnprintf+0x770>
80000824:	fb5ff06f          	j	800007d8 <vsnprintf+0x778>
80000828:	00012783          	lw	a5,0(sp)
8000082c:	00f383b3          	add	t2,t2,a5
80000830:	880600e3          	beqz	a2,800000b0 <vsnprintf+0x50>
80000834:	00812703          	lw	a4,8(sp)
80000838:	fff70793          	addi	a5,a4,-1
8000083c:	86070ae3          	beqz	a4,800000b0 <vsnprintf+0x50>
80000840:	02000693          	li	a3,32
80000844:	fff00713          	li	a4,-1
80000848:	02048263          	beqz	s1,8000086c <vsnprintf+0x80c>
8000084c:	00d28023          	sb	a3,0(t0)
80000850:	fff48493          	addi	s1,s1,-1
80000854:	00128293          	addi	t0,t0,1
80000858:	fff78793          	addi	a5,a5,-1
8000085c:	fee796e3          	bne	a5,a4,80000848 <vsnprintf+0x7e8>
80000860:	00812783          	lw	a5,8(sp)
80000864:	00f383b3          	add	t2,t2,a5
80000868:	849ff06f          	j	800000b0 <vsnprintf+0x50>
8000086c:	fff78793          	addi	a5,a5,-1
80000870:	fee794e3          	bne	a5,a4,80000858 <vsnprintf+0x7f8>
80000874:	fedff06f          	j	80000860 <vsnprintf+0x800>
80000878:	80000637          	lui	a2,0x80000
8000087c:	fff64613          	not	a2,a2
80000880:	a5dff06f          	j	800002dc <vsnprintf+0x27c>
80000884:	00400713          	li	a4,4
80000888:	16e79e63          	bne	a5,a4,80000a04 <vsnprintf+0x9a4>
8000088c:	00412603          	lw	a2,4(sp)
80000890:	00062703          	lw	a4,0(a2) # 80000000 <_end+0xffff6000>
80000894:	00462783          	lw	a5,4(a2)
80000898:	00860613          	addi	a2,a2,8
8000089c:	00c12223          	sw	a2,4(sp)
800008a0:	e59ff06f          	j	800006f8 <vsnprintf+0x698>
800008a4:	00400713          	li	a4,4
800008a8:	16e79a63          	bne	a5,a4,80000a1c <vsnprintf+0x9bc>
800008ac:	00412703          	lw	a4,4(sp)
800008b0:	00072403          	lw	s0,0(a4)
800008b4:	00472783          	lw	a5,4(a4)
800008b8:	00870713          	addi	a4,a4,8
800008bc:	00e12223          	sw	a4,4(sp)
800008c0:	b7dff06f          	j	8000043c <vsnprintf+0x3dc>
800008c4:	03814603          	lbu	a2,56(sp)
800008c8:	40f707b3          	sub	a5,a4,a5
800008cc:	00f12423          	sw	a5,8(sp)
800008d0:	03414683          	lbu	a3,52(sp)
800008d4:	04061463          	bnez	a2,8000091c <vsnprintf+0x8bc>
800008d8:	08069463          	bnez	a3,80000960 <vsnprintf+0x900>
800008dc:	00812783          	lw	a5,8(sp)
800008e0:	02000693          	li	a3,32
800008e4:	fff00713          	li	a4,-1
800008e8:	fff78793          	addi	a5,a5,-1
800008ec:	0c048263          	beqz	s1,800009b0 <vsnprintf+0x950>
800008f0:	00d28023          	sb	a3,0(t0)
800008f4:	fff48493          	addi	s1,s1,-1
800008f8:	00128293          	addi	t0,t0,1
800008fc:	fff78793          	addi	a5,a5,-1
80000900:	fee796e3          	bne	a5,a4,800008ec <vsnprintf+0x88c>
80000904:	00812783          	lw	a5,8(sp)
80000908:	00f383b3          	add	t2,t2,a5
8000090c:	c49ff06f          	j	80000554 <vsnprintf+0x4f4>
80000910:	00100793          	li	a5,1
80000914:	02d00413          	li	s0,45
80000918:	c15ff06f          	j	8000052c <vsnprintf+0x4cc>
8000091c:	04069263          	bnez	a3,80000960 <vsnprintf+0x900>
80000920:	0a041e63          	bnez	s0,800009dc <vsnprintf+0x97c>
80000924:	00812603          	lw	a2,8(sp)
80000928:	03000693          	li	a3,48
8000092c:	fff00713          	li	a4,-1
80000930:	fff60793          	addi	a5,a2,-1
80000934:	c20604e3          	beqz	a2,8000055c <vsnprintf+0x4fc>
80000938:	08048263          	beqz	s1,800009bc <vsnprintf+0x95c>
8000093c:	00d28023          	sb	a3,0(t0)
80000940:	fff48493          	addi	s1,s1,-1
80000944:	00128293          	addi	t0,t0,1
80000948:	fff78793          	addi	a5,a5,-1
8000094c:	fee796e3          	bne	a5,a4,80000938 <vsnprintf+0x8d8>
80000950:	00812783          	lw	a5,8(sp)
80000954:	00000613          	li	a2,0
80000958:	00f383b3          	add	t2,t2,a5
8000095c:	c01ff06f          	j	8000055c <vsnprintf+0x4fc>
80000960:	06040a63          	beqz	s0,800009d4 <vsnprintf+0x974>
80000964:	06048663          	beqz	s1,800009d0 <vsnprintf+0x970>
80000968:	00828023          	sb	s0,0(t0)
8000096c:	fff48493          	addi	s1,s1,-1
80000970:	00138393          	addi	t2,t2,1
80000974:	00128293          	addi	t0,t0,1
80000978:	00100613          	li	a2,1
8000097c:	be1ff06f          	j	8000055c <vsnprintf+0x4fc>
80000980:	00001717          	auipc	a4,0x1
80000984:	82470713          	addi	a4,a4,-2012 # 800011a4 <mainargs+0x40>
80000988:	00a00613          	li	a2,10
8000098c:	00012823          	sw	zero,16(sp)
80000990:	00e12623          	sw	a4,12(sp)
80000994:	ac9ff06f          	j	8000045c <vsnprintf+0x3fc>
80000998:	fff00513          	li	a0,-1
8000099c:	00000593          	li	a1,0
800009a0:	b6dff06f          	j	8000050c <vsnprintf+0x4ac>
800009a4:	00001717          	auipc	a4,0x1
800009a8:	82870713          	addi	a4,a4,-2008 # 800011cc <mainargs+0x68>
800009ac:	925ff06f          	j	800002d0 <vsnprintf+0x270>
800009b0:	fff78793          	addi	a5,a5,-1
800009b4:	f4e794e3          	bne	a5,a4,800008fc <vsnprintf+0x89c>
800009b8:	f4dff06f          	j	80000904 <vsnprintf+0x8a4>
800009bc:	fff78793          	addi	a5,a5,-1
800009c0:	f8e794e3          	bne	a5,a4,80000948 <vsnprintf+0x8e8>
800009c4:	f8dff06f          	j	80000950 <vsnprintf+0x8f0>
800009c8:	00000513          	li	a0,0
800009cc:	9cdff06f          	j	80000398 <vsnprintf+0x338>
800009d0:	00138393          	addi	t2,t2,1
800009d4:	00100613          	li	a2,1
800009d8:	b85ff06f          	j	8000055c <vsnprintf+0x4fc>
800009dc:	03000713          	li	a4,48
800009e0:	06049463          	bnez	s1,80000a48 <vsnprintf+0x9e8>
800009e4:	00138393          	addi	t2,t2,1
800009e8:	03000793          	li	a5,48
800009ec:	00000613          	li	a2,0
800009f0:	b6f716e3          	bne	a4,a5,8000055c <vsnprintf+0x4fc>
800009f4:	f31ff06f          	j	80000924 <vsnprintf+0x8c4>
800009f8:	00100793          	li	a5,1
800009fc:	02b00413          	li	s0,43
80000a00:	b2dff06f          	j	8000052c <vsnprintf+0x4cc>
80000a04:	00412783          	lw	a5,4(sp)
80000a08:	0007a703          	lw	a4,0(a5)
80000a0c:	00478793          	addi	a5,a5,4
80000a10:	00f12223          	sw	a5,4(sp)
80000a14:	41f75793          	srai	a5,a4,0x1f
80000a18:	ce1ff06f          	j	800006f8 <vsnprintf+0x698>
80000a1c:	00412703          	lw	a4,4(sp)
80000a20:	00000793          	li	a5,0
80000a24:	00072403          	lw	s0,0(a4)
80000a28:	00470713          	addi	a4,a4,4
80000a2c:	00e12223          	sw	a4,4(sp)
80000a30:	a0dff06f          	j	8000043c <vsnprintf+0x3dc>
80000a34:	03c12583          	lw	a1,60(sp)
80000a38:	03414603          	lbu	a2,52(sp)
80000a3c:	04b04e63          	bgtz	a1,80000a98 <vsnprintf+0xa38>
80000a40:	00812223          	sw	s0,4(sp)
80000a44:	e6cff06f          	j	800000b0 <vsnprintf+0x50>
80000a48:	00828023          	sb	s0,0(t0)
80000a4c:	fff48493          	addi	s1,s1,-1
80000a50:	00138393          	addi	t2,t2,1
80000a54:	00128293          	addi	t0,t0,1
80000a58:	f91ff06f          	j	800009e8 <vsnprintf+0x988>
80000a5c:	02000713          	li	a4,32
80000a60:	f80482e3          	beqz	s1,800009e4 <vsnprintf+0x984>
80000a64:	fe5ff06f          	j	80000a48 <vsnprintf+0x9e8>
80000a68:	00412783          	lw	a5,4(sp)
80000a6c:	00078703          	lb	a4,0(a5)
80000a70:	00478793          	addi	a5,a5,4
80000a74:	00f12223          	sw	a5,4(sp)
80000a78:	41f75793          	srai	a5,a4,0x1f
80000a7c:	c7dff06f          	j	800006f8 <vsnprintf+0x698>
80000a80:	00412703          	lw	a4,4(sp)
80000a84:	00000793          	li	a5,0
80000a88:	00074403          	lbu	s0,0(a4)
80000a8c:	00470713          	addi	a4,a4,4
80000a90:	00e12223          	sw	a4,4(sp)
80000a94:	9a9ff06f          	j	8000043c <vsnprintf+0x3dc>
80000a98:	8a061ce3          	bnez	a2,80000350 <vsnprintf+0x2f0>
80000a9c:	fff58613          	addi	a2,a1,-1
80000aa0:	00000793          	li	a5,0
80000aa4:	fff00693          	li	a3,-1
80000aa8:	d0dff06f          	j	800007b4 <vsnprintf+0x754>
80000aac:	00000613          	li	a2,0
80000ab0:	861ff06f          	j	80000310 <vsnprintf+0x2b0>

80000ab4 <printf>:
80000ab4:	bd810113          	addi	sp,sp,-1064
80000ab8:	41410313          	addi	t1,sp,1044
80000abc:	40b12a23          	sw	a1,1044(sp)
80000ac0:	800005b7          	lui	a1,0x80000
80000ac4:	40c12c23          	sw	a2,1048(sp)
80000ac8:	40d12e23          	sw	a3,1052(sp)
80000acc:	00050613          	mv	a2,a0
80000ad0:	00030693          	mv	a3,t1
80000ad4:	fff5c593          	not	a1,a1
80000ad8:	00810513          	addi	a0,sp,8
80000adc:	40112823          	sw	ra,1040(sp)
80000ae0:	40812623          	sw	s0,1036(sp)
80000ae4:	40912423          	sw	s1,1032(sp)
80000ae8:	42e12023          	sw	a4,1056(sp)
80000aec:	42f12223          	sw	a5,1060(sp)
80000af0:	00612223          	sw	t1,4(sp)
80000af4:	d6cff0ef          	jal	ra,80000060 <vsnprintf>
80000af8:	00a12023          	sw	a0,0(sp)
80000afc:	00a05e63          	blez	a0,80000b18 <printf+0x64>
80000b00:	00810493          	addi	s1,sp,8
80000b04:	00a48433          	add	s0,s1,a0
80000b08:	0004c503          	lbu	a0,0(s1)
80000b0c:	00148493          	addi	s1,s1,1
80000b10:	d24ff0ef          	jal	ra,80000034 <putch>
80000b14:	fe849ae3          	bne	s1,s0,80000b08 <printf+0x54>
80000b18:	41012083          	lw	ra,1040(sp)
80000b1c:	40c12403          	lw	s0,1036(sp)
80000b20:	00012503          	lw	a0,0(sp)
80000b24:	40812483          	lw	s1,1032(sp)
80000b28:	42810113          	addi	sp,sp,1064
80000b2c:	00008067          	ret

80000b30 <memset>:
80000b30:	0ff5f593          	zext.b	a1,a1
80000b34:	00050793          	mv	a5,a0
80000b38:	00a60733          	add	a4,a2,a0
80000b3c:	00060863          	beqz	a2,80000b4c <memset+0x1c>
80000b40:	00b78023          	sb	a1,0(a5)
80000b44:	00178793          	addi	a5,a5,1
80000b48:	fee79ce3          	bne	a5,a4,80000b40 <memset+0x10>
80000b4c:	00008067          	ret

80000b50 <__udivmoddi4>:
80000b50:	fe010113          	addi	sp,sp,-32
80000b54:	00912a23          	sw	s1,20(sp)
80000b58:	00112e23          	sw	ra,28(sp)
80000b5c:	00812c23          	sw	s0,24(sp)
80000b60:	00e12223          	sw	a4,4(sp)
80000b64:	00050313          	mv	t1,a0
80000b68:	00060493          	mv	s1,a2
80000b6c:	04059663          	bnez	a1,80000bb8 <__udivmoddi4+0x68>
80000b70:	20069463          	bnez	a3,80000d78 <__udivmoddi4+0x228>
80000b74:	00070413          	mv	s0,a4
80000b78:	00070e63          	beqz	a4,80000b94 <__udivmoddi4+0x44>
80000b7c:	00048593          	mv	a1,s1
80000b80:	00a12023          	sw	a0,0(sp)
80000b84:	56c000ef          	jal	ra,800010f0 <__umodsi3>
80000b88:	00012303          	lw	t1,0(sp)
80000b8c:	00a42023          	sw	a0,0(s0)
80000b90:	00042223          	sw	zero,4(s0)
80000b94:	00048593          	mv	a1,s1
80000b98:	00030513          	mv	a0,t1
80000b9c:	50c000ef          	jal	ra,800010a8 <__hidden___udivsi3>
80000ba0:	00000593          	li	a1,0
80000ba4:	01c12083          	lw	ra,28(sp)
80000ba8:	01812403          	lw	s0,24(sp)
80000bac:	01412483          	lw	s1,20(sp)
80000bb0:	02010113          	addi	sp,sp,32
80000bb4:	00008067          	ret
80000bb8:	00058793          	mv	a5,a1
80000bbc:	08061263          	bnez	a2,80000c40 <__udivmoddi4+0xf0>
80000bc0:	24068263          	beqz	a3,80000e04 <__udivmoddi4+0x2b4>
80000bc4:	2c050a63          	beqz	a0,80000e98 <__udivmoddi4+0x348>
80000bc8:	fff68613          	addi	a2,a3,-1
80000bcc:	00d675b3          	and	a1,a2,a3
80000bd0:	32058463          	beqz	a1,80000ef8 <__udivmoddi4+0x3a8>
80000bd4:	00a12623          	sw	a0,12(sp)
80000bd8:	00068513          	mv	a0,a3
80000bdc:	00f12823          	sw	a5,16(sp)
80000be0:	00f12023          	sw	a5,0(sp)
80000be4:	00d12423          	sw	a3,8(sp)
80000be8:	3ac000ef          	jal	ra,80000f94 <__clzsi2>
80000bec:	00012703          	lw	a4,0(sp)
80000bf0:	00050413          	mv	s0,a0
80000bf4:	00070513          	mv	a0,a4
80000bf8:	39c000ef          	jal	ra,80000f94 <__clzsi2>
80000bfc:	40a40533          	sub	a0,s0,a0
80000c00:	01e00613          	li	a2,30
80000c04:	00012703          	lw	a4,0(sp)
80000c08:	00812683          	lw	a3,8(sp)
80000c0c:	00c12303          	lw	t1,12(sp)
80000c10:	01012783          	lw	a5,16(sp)
80000c14:	1ea66a63          	bltu	a2,a0,80000e08 <__udivmoddi4+0x2b8>
80000c18:	00150393          	addi	t2,a0,1
80000c1c:	02000613          	li	a2,32
80000c20:	40760633          	sub	a2,a2,t2
80000c24:	00c712b3          	sll	t0,a4,a2
80000c28:	007355b3          	srl	a1,t1,t2
80000c2c:	007757b3          	srl	a5,a4,t2
80000c30:	00c31533          	sll	a0,t1,a2
80000c34:	00b2e733          	or	a4,t0,a1
80000c38:	00000413          	li	s0,0
80000c3c:	0780006f          	j	80000cb4 <__udivmoddi4+0x164>
80000c40:	16068263          	beqz	a3,80000da4 <__udivmoddi4+0x254>
80000c44:	00a12423          	sw	a0,8(sp)
80000c48:	00068513          	mv	a0,a3
80000c4c:	00b12623          	sw	a1,12(sp)
80000c50:	00b12023          	sw	a1,0(sp)
80000c54:	00d12823          	sw	a3,16(sp)
80000c58:	33c000ef          	jal	ra,80000f94 <__clzsi2>
80000c5c:	00012703          	lw	a4,0(sp)
80000c60:	00050413          	mv	s0,a0
80000c64:	00070513          	mv	a0,a4
80000c68:	32c000ef          	jal	ra,80000f94 <__clzsi2>
80000c6c:	40a40533          	sub	a0,s0,a0
80000c70:	01f00613          	li	a2,31
80000c74:	00812303          	lw	t1,8(sp)
80000c78:	00c12783          	lw	a5,12(sp)
80000c7c:	18a66663          	bltu	a2,a0,80000e08 <__udivmoddi4+0x2b8>
80000c80:	00150393          	addi	t2,a0,1
80000c84:	02000793          	li	a5,32
80000c88:	00012703          	lw	a4,0(sp)
80000c8c:	01012683          	lw	a3,16(sp)
80000c90:	00030513          	mv	a0,t1
80000c94:	28f38a63          	beq	t2,a5,80000f28 <__udivmoddi4+0x3d8>
80000c98:	40778633          	sub	a2,a5,t2
80000c9c:	007355b3          	srl	a1,t1,t2
80000ca0:	00c71333          	sll	t1,a4,a2
80000ca4:	007757b3          	srl	a5,a4,t2
80000ca8:	00c51533          	sll	a0,a0,a2
80000cac:	00b36733          	or	a4,t1,a1
80000cb0:	00000413          	li	s0,0
80000cb4:	00068613          	mv	a2,a3
80000cb8:	00012023          	sw	zero,0(sp)
80000cbc:	00078693          	mv	a3,a5
80000cc0:	00060793          	mv	a5,a2
80000cc4:	01f55593          	srli	a1,a0,0x1f
80000cc8:	00171613          	slli	a2,a4,0x1
80000ccc:	00b66633          	or	a2,a2,a1
80000cd0:	01f75713          	srli	a4,a4,0x1f
80000cd4:	00169693          	slli	a3,a3,0x1
80000cd8:	00e6e6b3          	or	a3,a3,a4
80000cdc:	40c48733          	sub	a4,s1,a2
80000ce0:	00e4b333          	sltu	t1,s1,a4
80000ce4:	40d785b3          	sub	a1,a5,a3
80000ce8:	406585b3          	sub	a1,a1,t1
80000cec:	00173713          	seqz	a4,a4
80000cf0:	40e585b3          	sub	a1,a1,a4
80000cf4:	41f5d313          	srai	t1,a1,0x1f
80000cf8:	00937733          	and	a4,t1,s1
80000cfc:	00f37333          	and	t1,t1,a5
80000d00:	406686b3          	sub	a3,a3,t1
80000d04:	00012303          	lw	t1,0(sp)
80000d08:	40e60733          	sub	a4,a2,a4
80000d0c:	01f5d593          	srli	a1,a1,0x1f
80000d10:	01f45293          	srli	t0,s0,0x1f
80000d14:	00151513          	slli	a0,a0,0x1
80000d18:	00141413          	slli	s0,s0,0x1
80000d1c:	00e63633          	sltu	a2,a2,a4
80000d20:	fff38393          	addi	t2,t2,-1
80000d24:	00b12023          	sw	a1,0(sp)
80000d28:	00646433          	or	s0,s0,t1
80000d2c:	00556533          	or	a0,a0,t0
80000d30:	40c686b3          	sub	a3,a3,a2
80000d34:	f80398e3          	bnez	t2,80000cc4 <__udivmoddi4+0x174>
80000d38:	01f45593          	srli	a1,s0,0x1f
80000d3c:	00068793          	mv	a5,a3
80000d40:	00151693          	slli	a3,a0,0x1
80000d44:	00012603          	lw	a2,0(sp)
80000d48:	00d5e5b3          	or	a1,a1,a3
80000d4c:	00412683          	lw	a3,4(sp)
80000d50:	00141413          	slli	s0,s0,0x1
80000d54:	00c46533          	or	a0,s0,a2
80000d58:	e40686e3          	beqz	a3,80000ba4 <__udivmoddi4+0x54>
80000d5c:	01c12083          	lw	ra,28(sp)
80000d60:	01812403          	lw	s0,24(sp)
80000d64:	00e6a023          	sw	a4,0(a3)
80000d68:	00f6a223          	sw	a5,4(a3)
80000d6c:	01412483          	lw	s1,20(sp)
80000d70:	02010113          	addi	sp,sp,32
80000d74:	00008067          	ret
80000d78:	00412783          	lw	a5,4(sp)
80000d7c:	08078a63          	beqz	a5,80000e10 <__udivmoddi4+0x2c0>
80000d80:	01c12083          	lw	ra,28(sp)
80000d84:	01812403          	lw	s0,24(sp)
80000d88:	00a7a023          	sw	a0,0(a5)
80000d8c:	0007a223          	sw	zero,4(a5)
80000d90:	01412483          	lw	s1,20(sp)
80000d94:	00000513          	li	a0,0
80000d98:	00000593          	li	a1,0
80000d9c:	02010113          	addi	sp,sp,32
80000da0:	00008067          	ret
80000da4:	fff60613          	addi	a2,a2,-1
80000da8:	009675b3          	and	a1,a2,s1
80000dac:	06059863          	bnez	a1,80000e1c <__udivmoddi4+0x2cc>
80000db0:	00412703          	lw	a4,4(sp)
80000db4:	00070863          	beqz	a4,80000dc4 <__udivmoddi4+0x274>
80000db8:	00a67633          	and	a2,a2,a0
80000dbc:	00c72023          	sw	a2,0(a4)
80000dc0:	00072223          	sw	zero,4(a4)
80000dc4:	00100713          	li	a4,1
80000dc8:	12e48263          	beq	s1,a4,80000eec <__udivmoddi4+0x39c>
80000dcc:	00048513          	mv	a0,s1
80000dd0:	00f12223          	sw	a5,4(sp)
80000dd4:	00612023          	sw	t1,0(sp)
80000dd8:	254000ef          	jal	ra,8000102c <__ctzsi2>
80000ddc:	00412783          	lw	a5,4(sp)
80000de0:	00012303          	lw	t1,0(sp)
80000de4:	02000413          	li	s0,32
80000de8:	40a40433          	sub	s0,s0,a0
80000dec:	00050713          	mv	a4,a0
80000df0:	00879433          	sll	s0,a5,s0
80000df4:	00a35533          	srl	a0,t1,a0
80000df8:	00a46533          	or	a0,s0,a0
80000dfc:	00e7d5b3          	srl	a1,a5,a4
80000e00:	da5ff06f          	j	80000ba4 <__udivmoddi4+0x54>
80000e04:	00100073          	ebreak
80000e08:	00412703          	lw	a4,4(sp)
80000e0c:	0c071663          	bnez	a4,80000ed8 <__udivmoddi4+0x388>
80000e10:	00000513          	li	a0,0
80000e14:	00000593          	li	a1,0
80000e18:	d8dff06f          	j	80000ba4 <__udivmoddi4+0x54>
80000e1c:	00a12623          	sw	a0,12(sp)
80000e20:	00048513          	mv	a0,s1
80000e24:	00068413          	mv	s0,a3
80000e28:	00d12823          	sw	a3,16(sp)
80000e2c:	00f12023          	sw	a5,0(sp)
80000e30:	164000ef          	jal	ra,80000f94 <__clzsi2>
80000e34:	00012703          	lw	a4,0(sp)
80000e38:	00050613          	mv	a2,a0
80000e3c:	00c12023          	sw	a2,0(sp)
80000e40:	00070513          	mv	a0,a4
80000e44:	00e12423          	sw	a4,8(sp)
80000e48:	14c000ef          	jal	ra,80000f94 <__clzsi2>
80000e4c:	00012603          	lw	a2,0(sp)
80000e50:	00c12303          	lw	t1,12(sp)
80000e54:	02000593          	li	a1,32
80000e58:	40a60633          	sub	a2,a2,a0
80000e5c:	02160393          	addi	t2,a2,33
80000e60:	00812703          	lw	a4,8(sp)
80000e64:	01012683          	lw	a3,16(sp)
80000e68:	00030513          	mv	a0,t1
80000e6c:	00000793          	li	a5,0
80000e70:	e4b382e3          	beq	t2,a1,80000cb4 <__udivmoddi4+0x164>
80000e74:	01f00313          	li	t1,31
80000e78:	0a736e63          	bltu	t1,t2,80000f34 <__udivmoddi4+0x3e4>
80000e7c:	407585b3          	sub	a1,a1,t2
80000e80:	00755633          	srl	a2,a0,t2
80000e84:	00b71333          	sll	t1,a4,a1
80000e88:	007757b3          	srl	a5,a4,t2
80000e8c:	00b51533          	sll	a0,a0,a1
80000e90:	00c36733          	or	a4,t1,a2
80000e94:	e21ff06f          	j	80000cb4 <__udivmoddi4+0x164>
80000e98:	00412403          	lw	s0,4(sp)
80000e9c:	02040463          	beqz	s0,80000ec4 <__udivmoddi4+0x374>
80000ea0:	00068593          	mv	a1,a3
80000ea4:	00078513          	mv	a0,a5
80000ea8:	00d12223          	sw	a3,4(sp)
80000eac:	00f12023          	sw	a5,0(sp)
80000eb0:	240000ef          	jal	ra,800010f0 <__umodsi3>
80000eb4:	00412683          	lw	a3,4(sp)
80000eb8:	00012783          	lw	a5,0(sp)
80000ebc:	00042023          	sw	zero,0(s0)
80000ec0:	00a42223          	sw	a0,4(s0)
80000ec4:	00068593          	mv	a1,a3
80000ec8:	00078513          	mv	a0,a5
80000ecc:	1dc000ef          	jal	ra,800010a8 <__hidden___udivsi3>
80000ed0:	00000593          	li	a1,0
80000ed4:	cd1ff06f          	j	80000ba4 <__udivmoddi4+0x54>
80000ed8:	00672023          	sw	t1,0(a4)
80000edc:	00f72223          	sw	a5,4(a4)
80000ee0:	00000513          	li	a0,0
80000ee4:	00000593          	li	a1,0
80000ee8:	cbdff06f          	j	80000ba4 <__udivmoddi4+0x54>
80000eec:	00030513          	mv	a0,t1
80000ef0:	00078593          	mv	a1,a5
80000ef4:	cb1ff06f          	j	80000ba4 <__udivmoddi4+0x54>
80000ef8:	00412703          	lw	a4,4(sp)
80000efc:	00070863          	beqz	a4,80000f0c <__udivmoddi4+0x3bc>
80000f00:	00f67633          	and	a2,a2,a5
80000f04:	00a72023          	sw	a0,0(a4)
80000f08:	00c72223          	sw	a2,4(a4)
80000f0c:	00068513          	mv	a0,a3
80000f10:	00f12023          	sw	a5,0(sp)
80000f14:	118000ef          	jal	ra,8000102c <__ctzsi2>
80000f18:	00012783          	lw	a5,0(sp)
80000f1c:	00000593          	li	a1,0
80000f20:	00a7d533          	srl	a0,a5,a0
80000f24:	c81ff06f          	j	80000ba4 <__udivmoddi4+0x54>
80000f28:	00000793          	li	a5,0
80000f2c:	00000413          	li	s0,0
80000f30:	d85ff06f          	j	80000cb4 <__udivmoddi4+0x164>
80000f34:	04000593          	li	a1,64
80000f38:	407585b3          	sub	a1,a1,t2
80000f3c:	00160613          	addi	a2,a2,1
80000f40:	00b51433          	sll	s0,a0,a1
80000f44:	00b715b3          	sll	a1,a4,a1
80000f48:	00c55533          	srl	a0,a0,a2
80000f4c:	00a5e533          	or	a0,a1,a0
80000f50:	00c75733          	srl	a4,a4,a2
80000f54:	d61ff06f          	j	80000cb4 <__udivmoddi4+0x164>

80000f58 <__udivdi3>:
80000f58:	00000713          	li	a4,0
80000f5c:	bf5ff06f          	j	80000b50 <__udivmoddi4>

80000f60 <__umoddi3>:
80000f60:	fe810113          	addi	sp,sp,-24
80000f64:	00812823          	sw	s0,16(sp)
80000f68:	00710413          	addi	s0,sp,7
80000f6c:	ff847413          	andi	s0,s0,-8
80000f70:	00040713          	mv	a4,s0
80000f74:	00112a23          	sw	ra,20(sp)
80000f78:	bd9ff0ef          	jal	ra,80000b50 <__udivmoddi4>
80000f7c:	00042503          	lw	a0,0(s0)
80000f80:	00442583          	lw	a1,4(s0)
80000f84:	01412083          	lw	ra,20(sp)
80000f88:	01012403          	lw	s0,16(sp)
80000f8c:	01810113          	addi	sp,sp,24
80000f90:	00008067          	ret

80000f94 <__clzsi2>:
80000f94:	ffff0637          	lui	a2,0xffff0
80000f98:	00c57633          	and	a2,a0,a2
80000f9c:	00163613          	seqz	a2,a2
80000fa0:	00461613          	slli	a2,a2,0x4
80000fa4:	01000793          	li	a5,16
80000fa8:	40c787b3          	sub	a5,a5,a2
80000fac:	00010737          	lui	a4,0x10
80000fb0:	00f557b3          	srl	a5,a0,a5
80000fb4:	f0070713          	addi	a4,a4,-256 # ff00 <_entry_offset+0xff00>
80000fb8:	00e7f733          	and	a4,a5,a4
80000fbc:	00173713          	seqz	a4,a4
80000fc0:	00371713          	slli	a4,a4,0x3
80000fc4:	00800693          	li	a3,8
80000fc8:	40e686b3          	sub	a3,a3,a4
80000fcc:	00d7d7b3          	srl	a5,a5,a3
80000fd0:	0f07f593          	andi	a1,a5,240
80000fd4:	0015b593          	seqz	a1,a1
80000fd8:	00259593          	slli	a1,a1,0x2
80000fdc:	00400693          	li	a3,4
80000fe0:	40b686b3          	sub	a3,a3,a1
80000fe4:	00d7d7b3          	srl	a5,a5,a3
80000fe8:	00c7f513          	andi	a0,a5,12
80000fec:	00153513          	seqz	a0,a0
80000ff0:	00151513          	slli	a0,a0,0x1
80000ff4:	00200313          	li	t1,2
80000ff8:	40a306b3          	sub	a3,t1,a0
80000ffc:	00d7d7b3          	srl	a5,a5,a3
80001000:	0017d693          	srli	a3,a5,0x1
80001004:	0016c693          	xori	a3,a3,1
80001008:	00c70733          	add	a4,a4,a2
8000100c:	0016f693          	andi	a3,a3,1
80001010:	00e585b3          	add	a1,a1,a4
80001014:	40f30333          	sub	t1,t1,a5
80001018:	40d006b3          	neg	a3,a3
8000101c:	0066f6b3          	and	a3,a3,t1
80001020:	00b50533          	add	a0,a0,a1
80001024:	00a68533          	add	a0,a3,a0
80001028:	00008067          	ret

8000102c <__ctzsi2>:
8000102c:	01051593          	slli	a1,a0,0x10
80001030:	0105d593          	srli	a1,a1,0x10
80001034:	0015b593          	seqz	a1,a1
80001038:	00459593          	slli	a1,a1,0x4
8000103c:	00b557b3          	srl	a5,a0,a1
80001040:	0ff7f613          	zext.b	a2,a5
80001044:	00163613          	seqz	a2,a2
80001048:	00361613          	slli	a2,a2,0x3
8000104c:	00c7d7b3          	srl	a5,a5,a2
80001050:	00f7f693          	andi	a3,a5,15
80001054:	0016b693          	seqz	a3,a3
80001058:	00269693          	slli	a3,a3,0x2
8000105c:	00d7d7b3          	srl	a5,a5,a3
80001060:	0037f713          	andi	a4,a5,3
80001064:	00173713          	seqz	a4,a4
80001068:	00171713          	slli	a4,a4,0x1
8000106c:	00e7d7b3          	srl	a5,a5,a4
80001070:	0017d513          	srli	a0,a5,0x1
80001074:	00b60633          	add	a2,a2,a1
80001078:	0017f793          	andi	a5,a5,1
8000107c:	00157593          	andi	a1,a0,1
80001080:	00200513          	li	a0,2
80001084:	40b50533          	sub	a0,a0,a1
80001088:	00c686b3          	add	a3,a3,a2
8000108c:	fff78793          	addi	a5,a5,-1
80001090:	00f577b3          	and	a5,a0,a5
80001094:	00d70533          	add	a0,a4,a3
80001098:	00a78533          	add	a0,a5,a0
8000109c:	00008067          	ret

800010a0 <__divsi3>:
800010a0:	06054063          	bltz	a0,80001100 <__umodsi3+0x10>
800010a4:	0605c663          	bltz	a1,80001110 <__umodsi3+0x20>

800010a8 <__hidden___udivsi3>:
800010a8:	00058613          	mv	a2,a1
800010ac:	00050593          	mv	a1,a0
800010b0:	fff00513          	li	a0,-1
800010b4:	02060c63          	beqz	a2,800010ec <__hidden___udivsi3+0x44>
800010b8:	00100693          	li	a3,1
800010bc:	00b67a63          	bgeu	a2,a1,800010d0 <__hidden___udivsi3+0x28>
800010c0:	00c05863          	blez	a2,800010d0 <__hidden___udivsi3+0x28>
800010c4:	00161613          	slli	a2,a2,0x1
800010c8:	00169693          	slli	a3,a3,0x1
800010cc:	feb66ae3          	bltu	a2,a1,800010c0 <__hidden___udivsi3+0x18>
800010d0:	00000513          	li	a0,0
800010d4:	00c5e663          	bltu	a1,a2,800010e0 <__hidden___udivsi3+0x38>
800010d8:	40c585b3          	sub	a1,a1,a2
800010dc:	00d56533          	or	a0,a0,a3
800010e0:	0016d693          	srli	a3,a3,0x1
800010e4:	00165613          	srli	a2,a2,0x1
800010e8:	fe0696e3          	bnez	a3,800010d4 <__hidden___udivsi3+0x2c>
800010ec:	00008067          	ret

800010f0 <__umodsi3>:
800010f0:	00008293          	mv	t0,ra
800010f4:	fb5ff0ef          	jal	ra,800010a8 <__hidden___udivsi3>
800010f8:	00058513          	mv	a0,a1
800010fc:	00028067          	jr	t0
80001100:	40a00533          	neg	a0,a0
80001104:	00b04863          	bgtz	a1,80001114 <__umodsi3+0x24>
80001108:	40b005b3          	neg	a1,a1
8000110c:	f9dff06f          	j	800010a8 <__hidden___udivsi3>
80001110:	40b005b3          	neg	a1,a1
80001114:	00008293          	mv	t0,ra
80001118:	f91ff0ef          	jal	ra,800010a8 <__hidden___udivsi3>
8000111c:	40a00533          	neg	a0,a0
80001120:	00028067          	jr	t0

80001124 <__modsi3>:
80001124:	00008293          	mv	t0,ra
80001128:	0005ca63          	bltz	a1,8000113c <__modsi3+0x18>
8000112c:	00054c63          	bltz	a0,80001144 <__modsi3+0x20>
80001130:	f79ff0ef          	jal	ra,800010a8 <__hidden___udivsi3>
80001134:	00058513          	mv	a0,a1
80001138:	00028067          	jr	t0
8000113c:	40b005b3          	neg	a1,a1
80001140:	fe0558e3          	bgez	a0,80001130 <__modsi3+0xc>
80001144:	40a00533          	neg	a0,a0
80001148:	f61ff0ef          	jal	ra,800010a8 <__hidden___udivsi3>
8000114c:	40b00533          	neg	a0,a1
80001150:	00028067          	jr	t0
